
CH32X035G8U6_AIO_Master.elf:     file format elf32-littleriscv
CH32X035G8U6_AIO_Master.elf
architecture: riscv:rv32, flags 0x00000112:
EXEC_P, HAS_SYMS, D_PAGED
start address 0x00000000

Program Header:
    LOAD off    0x00001000 vaddr 0x00000000 paddr 0x00000000 align 2**12
         filesz 0x00006094 memsz 0x00006094 flags r-x
    LOAD off    0x00008000 vaddr 0x20000000 paddr 0x00006094 align 2**12
         filesz 0x00000258 memsz 0x00001230 flags rw-
    LOAD off    0x00009000 vaddr 0x20004000 paddr 0x20004000 align 2**12
         filesz 0x00000000 memsz 0x00001000 flags rw-

Sections:
Idx Name          Size      VMA       LMA       File off  Algn
  0 .init         00000004  00000000  00000000  00001000  2**1
                  CONTENTS, ALLOC, LOAD, READONLY, CODE
  1 .vector       000000fc  00000004  00000004  00001004  2**1
                  CONTENTS, ALLOC, LOAD, READONLY, CODE
  2 .text         00005f94  00000100  00000100  00001100  2**2
                  CONTENTS, ALLOC, LOAD, READONLY, CODE
  3 .fini         00000000  00006094  00006094  00008258  2**0
                  CONTENTS, ALLOC, LOAD, CODE
  4 .dalign       00000000  20000000  20000000  00008258  2**0
                  CONTENTS
  5 .dlalign      00000000  00006094  00006094  00008258  2**0
                  CONTENTS
  6 .data         00000258  20000000  00006094  00008000  2**2
                  CONTENTS, ALLOC, LOAD, DATA
  7 .bss          00000fd8  20000258  000062ec  00008258  2**2
                  ALLOC
  8 .stack        00001000  20004000  20004000  00009000  2**0
                  ALLOC
  9 .debug_info   0001dbd5  00000000  00000000  00008258  2**0
                  CONTENTS, READONLY, DEBUGGING
 10 .debug_abbrev 00005116  00000000  00000000  00025e2d  2**0
                  CONTENTS, READONLY, DEBUGGING
 11 .debug_loc    000055b3  00000000  00000000  0002af43  2**0
                  CONTENTS, READONLY, DEBUGGING
 12 .debug_aranges 00000ed0  00000000  00000000  000304f8  2**3
                  CONTENTS, READONLY, DEBUGGING
 13 .debug_ranges 00001000  00000000  00000000  000313c8  2**3
                  CONTENTS, READONLY, DEBUGGING
 14 .debug_line   00013259  00000000  00000000  000323c8  2**0
                  CONTENTS, READONLY, DEBUGGING
 15 .debug_str    00004605  00000000  00000000  00045621  2**0
                  CONTENTS, READONLY, DEBUGGING
 16 .comment      00000033  00000000  00000000  00049c26  2**0
                  CONTENTS, READONLY
 17 .debug_frame  00002ee0  00000000  00000000  00049c5c  2**2
                  CONTENTS, READONLY, DEBUGGING
 18 .stab         00000084  00000000  00000000  0004cb3c  2**2
                  CONTENTS, READONLY, DEBUGGING
 19 .stabstr      00000117  00000000  00000000  0004cbc0  2**0
                  CONTENTS, READONLY, DEBUGGING
SYMBOL TABLE:
00000000 l    d  .init	00000000 .init
00000004 l    d  .vector	00000000 .vector
00000100 l    d  .text	00000000 .text
00006094 l    d  .fini	00000000 .fini
20000000 l    d  .dalign	00000000 .dalign
00006094 l    d  .dlalign	00000000 .dlalign
20000000 l    d  .data	00000000 .data
20000258 l    d  .bss	00000000 .bss
20004000 l    d  .stack	00000000 .stack
00000000 l    d  .debug_info	00000000 .debug_info
00000000 l    d  .debug_abbrev	00000000 .debug_abbrev
00000000 l    d  .debug_loc	00000000 .debug_loc
00000000 l    d  .debug_aranges	00000000 .debug_aranges
00000000 l    d  .debug_ranges	00000000 .debug_ranges
00000000 l    d  .debug_line	00000000 .debug_line
00000000 l    d  .debug_str	00000000 .debug_str
00000000 l    d  .comment	00000000 .comment
00000000 l    d  .debug_frame	00000000 .debug_frame
00000000 l    d  .stab	00000000 .stab
00000000 l    d  .stabstr	00000000 .stabstr
00000000 l    df *ABS*	00000000 ./Startup/startup_ch32x035.o
00000004 l       .vector	00000000 _vector_base
00000000 l    df *ABS*	00000000 PD_Process.c
00000958 l     F .text	000000b0 PD_Send_Handle.part.3
00000000 l    df *ABS*	00000000 button.c
20000274 l     O .bss	00000004 Head_Button
00000000 l    df *ABS*	00000000 ch32x035_it.c
00000000 l    df *ABS*	00000000 key.c
00000000 l    df *ABS*	00000000 led.c
000015a0 l     F .text	0000001a beep_close
000015ba l     F .text	0000001a beep_on
000015d4 l     F .text	00000018 on_green_off
000015ec l     F .text	0000001a off_red_off
00001606 l     F .text	0000001a off_red_on
00001620 l     F .text	00000020 on_green_on
200004d4 l     O .bss	00000168 beep_obj
2000063c l     O .bss	00000168 beep_obj_loss
200007a4 l     O .bss	00000168 beep_obj_once
2000090c l     O .bss	00000168 beep_obj_three
20000a74 l     O .bss	00000168 led_obj_loss_red
20000bdc l     O .bss	00000168 led_obj_off_red
20000d44 l     O .bss	00000168 led_obj_off_red_once
20000eac l     O .bss	00000168 led_obj_off_red_three
20001014 l     O .bss	00000168 led_obj_on_green
00000000 l    df *ABS*	00000000 main.c
00000000 l    df *ABS*	00000000 my_I2C_Device.c
2000027e l     O .bss	00000002 set_Vbus.4514
00000000 l    df *ABS*	00000000 my_PD_Device.c
00000000 l    df *ABS*	00000000 my_PD_Valve.c
2000028c l     O .bss	00000001 valve_check_error
2000028d l     O .bss	00000001 valve_close_switch
2000028e l     O .bss	00000001 valve_close_timeout
2000028f l     O .bss	00000001 valve_open_switch
20000290 l     O .bss	00000001 valve_open_timeout
20000291 l     O .bss	00000001 valve_power_error
20000292 l     O .bss	00000001 valve_status
00000000 l    df *ABS*	00000000 my_SPI_Slave.c
20000299 l     O .bss	00000001 spi_control_status
00000000 l    df *ABS*	00000000 signal_led.c
200002a4 l     O .bss	00000004 first_handle
00000000 l    df *ABS*	00000000 system_ch32x035.c
00000000 l    df *ABS*	00000000 valve_work.c
000032b4 l     F .text	0000001c valve_turn_control.part.2
200002a8 l     O .bss	00000001 internal_valve_warning
200002a9 l     O .bss	00000001 valve_check_tick
200002aa l     O .bss	00000001 valve_status
20000234 l     O .data	00000001 valve_valid
00000000 l    df *ABS*	00000000 water_work.c
00000000 l    df *ABS*	00000000 ch32x035_dbgmcu.c
00000000 l    df *ABS*	00000000 ch32x035_gpio.c
00000000 l    df *ABS*	00000000 ch32x035_i2c.c
00000000 l    df *ABS*	00000000 ch32x035_iwdg.c
00000000 l    df *ABS*	00000000 ch32x035_misc.c
00000000 l    df *ABS*	00000000 ch32x035_rcc.c
20000038 l     O .data	00000010 APBAHBPrescTable
00000000 l    df *ABS*	00000000 ch32x035_spi.c
00000000 l    df *ABS*	00000000 ch32x035_tim.c
00000000 l    df *ABS*	00000000 ch32x035_usart.c
00000000 l    df *ABS*	00000000 debug.c
200002e4 l     O .bss	00000002 p_ms
200002e6 l     O .bss	00000001 p_us
20000248 l     O .data	00000004 curbrk.4445
00000000 l    df *ABS*	00000000 atol.c
00000000 l    df *ABS*	00000000 memcpy.c
00000000 l    df *ABS*	00000000 printf.c
00000000 l    df *ABS*	00000000 puts.c
00000000 l    df *ABS*	00000000 strlen.c
00000000 l    df *ABS*	00000000 strtol.c
000042e4 l     F .text	00000138 _strtol_l.isra.0
00000000 l    df *ABS*	00000000 wbuf.c
00000000 l    df *ABS*	00000000 wsetup.c
00000000 l    df *ABS*	00000000 fflush.c
00000000 l    df *ABS*	00000000 findfp.c
00004788 l     F .text	00000066 std
00000000 l    df *ABS*	00000000 fwalk.c
00000000 l    df *ABS*	00000000 locale.c
00000000 l    df *ABS*	00000000 makebuf.c
00000000 l    df *ABS*	00000000 mbtowc_r.c
00000000 l    df *ABS*	00000000 nano-mallocr.c
00000000 l    df *ABS*	00000000 nano-mallocr.c
00000000 l    df *ABS*	00000000 nano-vfprintf.c
00004c52 l     F .text	00000028 __sfputc_r
00000000 l    df *ABS*	00000000 nano-vfprintf_i.c
00000000 l    df *ABS*	00000000 sbrkr.c
00000000 l    df *ABS*	00000000 stdio.c
00000000 l    df *ABS*	00000000 wctomb_r.c
00000000 l    df *ABS*	00000000 writer.c
00000000 l    df *ABS*	00000000 closer.c
00000000 l    df *ABS*	00000000 fstatr.c
00000000 l    df *ABS*	00000000 isattyr.c
00000000 l    df *ABS*	00000000 lseekr.c
00000000 l    df *ABS*	00000000 memchr.c
00000000 l    df *ABS*	00000000 mlock.c
00000000 l    df *ABS*	00000000 readr.c
00000000 l    df *ABS*	00000000 close.c
00000000 l    df *ABS*	00000000 fstat.c
00000000 l    df *ABS*	00000000 isatty.c
00000000 l    df *ABS*	00000000 lseek.c
00000000 l    df *ABS*	00000000 read.c
00000000 l    df *ABS*	00000000 ctype_.c
00000000 l    df *ABS*	00000000 impure.c
20000048 l     O .data	00000060 impure_data
00000000 l    df *ABS*	00000000 reent.c
00005484 g     F .text	00000030 _isatty_r
00002002 g     F .text	00000006 get_SC8726_Vbus_Out_Status
000041f2 g     F .text	000000d4 _puts_r
00001862 g     F .text	00000010 led_warn_off
000054b4 g     F .text	00000034 _lseek_r
0000276c g     F .text	00000006 my_Valve_Set_open_timeout
00002766 g     F .text	00000006 my_Valve_Set_check_error
00000bbe g     F .text	000004ca PD_Main_Proc
000023d2 g     F .text	00000006 get_PD_Status
20000294 g     O .bss	00000001 receive_flag
00002678 g     F .text	0000000c my_Valve_Connect_SPI
00001e6a g     F .text	000000f8 get_I2C_Status
200002f0 g     O .bss	0000001e Adapter_SrcCap
20000282 g     O .bss	00000001 pd_voltage_level
000037b0 g     F .text	00000026 warning_lost_clear
000031cc g     F .text	00000074 valve_open_timer_callback
000041b2 g     F .text	00000040 printf
20000a18 g       .data	00000000 __global_pointer$
00000108 g     F .text	00000028 .hidden __riscv_save_8
000037d6  w      .text	00000000 TIM1_CC_IRQHandler
00003be2 g     F .text	00000008 I2C_ReceiveData
00002610 g     F .text	00000024 TIM2_UP_IRQHandler
000016ae g     F .text	0000003c led_moto_fail_start
00005398 g     F .text	00000030 __sseek
0000483e g     F .text	0000006c __sinit
00003e02 g     F .text	00000004 SPI_I2S_SendData
0000443a g     F .text	000000bc __swbuf_r
00001330 g     F .text	00000002 HardFault_Handler
000047f8 g     F .text	00000046 __sfmoreglue
000022f8 g     F .text	00000006 pd_chip_lock_voltage_get
2000023c g     O .data	00000004 CFGHR_tmpA
00005502 g     F .text	00000002 __malloc_unlock
00000864 g     F .text	000000f4 USBPD_IRQHandler
0000353c g     F .text	000000e2 valve_init
00000154 g     F .text	0000000c .hidden __riscv_restore_3
00000208 g     F .text	00000044 my_set_Vbus_Current
000037d6  w      .text	00000000 SysTick_Handler
0000224c g     F .text	00000028 my_SC8726_Handle
00003cca g     F .text	00000054 NVIC_Init
000037d6  w      .text	00000000 PVD_IRQHandler
00000140 g     F .text	00000020 .hidden __riscv_restore_10
0000292a g     F .text	0000001c my_SPI_Master_Init
00003e06 g     F .text	00000004 SPI_I2S_ReceiveData
0000132e g     F .text	00000002 NMI_Handler
0000147a g     F .text	00000126 button_init
200003d8 g     O .bss	00000054 key_on_btn
00000108 g     F .text	00000028 .hidden __riscv_save_11
00003862 g     F .text	0000000a DBGMCU_GetCHIPID
000040fa g     F .text	00000006 atol
200011dc g     O .bss	00000014 valve_close_timer
000027dc g     F .text	0000008a my_PD_Valve_Receive
00001332 g     F .text	00000038 key_on_click_handle
0000259a g     F .text	00000032 my_PD_Handle
2000029e g     O .bss	00000001 spi_thread
200002c8 g     O .bss	00000008 MasterSensorLeakEvent
00001f62 g     F .text	00000016 my_SC8726_Init
00001088 g     F .text	000000c6 my_pd_connect_valve
200011b0 g     O .bss	0000000a receive_buff
2000026c g     O .bss	00000002 src_vbus_current
00003f9c g     F .text	0000000a USART_GetFlagStatus
00005452 g     F .text	00000032 _fstat_r
0000140c g     F .text	00000018 water_lost_plugin_callback
2000122c g     O .bss	00000004 errno
000032f8 g     F .text	000000f0 valva_check_timer_callback
20000258 g       .bss	00000000 _sbss
00001000 g       *ABS*	00000000 __stack_size
00004038 g     F .text	0000005a USART_Printf_Init
000037d6  w      .text	00000000 EXTI25_16_IRQHandler
000037d6  w      .text	00000000 USBFS_IRQHandler
200002b0 g     O .bss	00000008 ExternalValveFailEvent
00000154 g     F .text	0000000c .hidden __riscv_restore_2
000024d6 g     F .text	0000008c my_VBus_Countrol
0000343e g     F .text	0000000c valve_open_once_timer_callback
00001852 g     F .text	00000010 led_valve_off
2000025e g     O .bss	00000001 Tmr_Ms_Cnt_Last
00002634 g     F .text	00000038 my_valve_check_Handle
00003ca0 g     F .text	00000008 IWDG_SetReload
00003bcc g     F .text	00000012 I2C_ITConfig
00004100 g     F .text	000000b2 memcpy
2000025c g     O .bss	00000002 PD_Ack_Buf
00002784 g     F .text	00000058 my_Valve_Get_Error
20001204 g     O .bss	00000014 valve_open_once_timer
2000022c g     O .data	00000002 Vbus_Current
000047ee g     F .text	0000000a _cleanup_r
000039f8 g     F .text	000000a0 GPIO_PinRemapConfig
000003b0 g     F .text	00000286 PD_Detect
00002f9e g     F .text	000000c0 led_set_mode
00000a74 g     F .text	00000066 PD_Save_Adapter_SrcCap
20001190 g     O .bss	00000020 sc8726
00003ea0 g     F .text	00000018 TIM_Cmd
000042c6 g     F .text	0000000c puts
0000344a g     F .text	0000004c valve_close
20000230 g     O .data	00000004 SystemCoreClock
20000374 g     O .bss	00000010 pd_valve_send_buff
00003086 g     F .text	0000002e led_stop
00005548 g     F .text	00000010 _fstat
20000262 g     O .bss	00000002 connect_time
000023d8 g     F .text	0000003e my_PD_Status_init
000036ec g     F .text	00000008 MasterStatusChangeToDeAvtive
00000004 g       .init	00000000 _einit
00003ee2 g     F .text	0000000c TIM_ClearITPendingBit
00002b3c g     F .text	0000004e my_spi_receive_show
00003d5c g     F .text	0000001e RCC_APB2PeriphClockCmd
00000100 g     F .text	00000030 .hidden __riscv_save_12
00002562 g     F .text	00000038 my_TIM_Handle
000033e8 g     F .text	00000056 valve_open
0000386c g     F .text	0000016e GPIO_Init
000037d6  w      .text	00000000 Break_Point_Handler
00000358 g     F .text	00000058 PD_Init
000037d6  w      .text	00000000 TIM2_TRG_COM_IRQHandler
00002b8a g     F .text	00000008 my_spi_open_valve
000017d2 g     F .text	00000054 led_ntc_alarm
00000140 g     F .text	00000020 .hidden __riscv_restore_11
000037d6  w      .text	00000000 TIM2_CC_IRQHandler
200002e0 g     O .bss	00000004 NVIC_Priority_Group
00002afa g     F .text	00000022 my_spi_SNK
000029e0 g     F .text	0000011a SPI1_IRQHandler
00003f7e g     F .text	00000016 USART_Cmd
20000271 g     O .bss	00000001 valve_connect
000052f2 g     F .text	00000032 _sbrk_r
20001218 g     O .bss	00000014 valve_open_timer
00000130 g     F .text	0000000c .hidden __riscv_save_1
20000384 g     O .bss	00000054 key_off_btn
00000154 g     F .text	0000000c .hidden __riscv_restore_0
000037d6  w      .text	00000000 AWU_IRQHandler
000037d6  w      .text	00000000 EXTI7_0_IRQHandler
00005504 g     F .text	00000034 _read_r
00000116 g     F .text	0000001a .hidden __riscv_save_7
000026a2 g     F .text	0000003e my_Valve_Controls_Open
0000118e g     F .text	00000020 my_pd_check_valve
00003d7a g     F .text	0000001e RCC_APB1PeriphClockCmd
000037d6  w      .text	00000000 Ecall_M_Mode_Handler
20004000 g       .stack	00000000 _heap_end
2000021c g     O .data	00000004 SrcCap_5V3A_Tab
00005558 g     F .text	00000010 _isatty
00003fcc g     F .text	00000036 Delay_Us
20000250 g     O .data	00000004 _global_impure_ptr
00003e22 g     F .text	00000028 SPI_I2S_GetITStatus
0000014a g     F .text	00000016 .hidden __riscv_restore_5
00001872 g     F .text	00000010 led_loss_off
00002f74 g     F .text	0000002a led_create
00002416 g     F .text	00000016 set_PD_STATUS_SRC
000037d6  w      .text	00000000 DMA1_Channel4_IRQHandler
00003bde g     F .text	00000004 I2C_SendData
000037d6  w      .text	00000000 ADC1_IRQHandler
000040d0 g     F .text	0000002a _sbrk
000037d6  w      .text	00000000 TIM2_BRK_IRQHandler
00002760 g     F .text	00000006 my_Valve_Set_power_error
00003e0a g     F .text	00000018 SPI_SSOutputCmd
0000441c g     F .text	0000001e strtol
00003ca8 g     F .text	0000000e IWDG_ReloadCounter
00003a98 g     F .text	000000ce I2C_Init
0000014a g     F .text	00000016 .hidden __riscv_restore_6
00001242 g     F .text	00000042 Button_Attach
000037d6  w      .text	00000000 USART3_IRQHandler
0000114e g     F .text	00000020 my_pd_close_valve
20001230 g       .bss	00000000 _ebss
0000136a g     F .text	00000046 key_off_click_handle
000037d6  w      .text	00000000 DMA1_Channel7_IRQHandler
0000376e g     F .text	00000028 warning_all_clear
00003fa6 g     F .text	00000026 Delay_Init
2000032c g     O .bss	00000022 PD_Rx_Buf
0000271e g     F .text	00000042 my_Valve_Controls_Check
20000281 g     O .bss	00000001 Tim_Ms_Cnt
000037d6  w      .text	00000000 USBPDWakeUp_IRQHandler
000037d6  w      .text	00000000 EXTI15_8_IRQHandler
20000266 g     O .bss	00000002 pd_valve_time
000011ae g     F .text	00000094 Button_Create
20000298 g     O .bss	00000001 spi_PDO_Len
00000108 g     F .text	00000028 .hidden __riscv_save_9
000039e4 g     F .text	00000014 GPIO_WriteBit
0000349c g     F .text	00000022 valve_check
00002ba2 g     F .text	000003d2 my_spi_handle
200011f0 g     O .bss	00000014 valve_detect_timer
20000268 g     O .bss	00000002 snk_vbus_current
2000025f g     O .bss	00000001 Tmr_Ms_Dlt
00003b7e g     F .text	0000001a I2C_GenerateSTART
00005ee4 g     O .text	00000020 __sf_fake_stderr
00000116 g     F .text	0000001a .hidden __riscv_save_4
200002b8 g     O .bss	00000008 InternalValveFailEvent
00002946 g     F .text	00000046 my_spi_read
00003634 g     F .text	0000001a MasterSensorLeakEventCallback
00001c24 g     F .text	00000208 I2C1_EV_IRQHandler
00002440 g     F .text	00000096 GPIO_Toggle_INIT
00001640 g     F .text	0000001e led_handle
00000ada g     F .text	00000036 PD_PDO_Analyse
000037d6  w      .text	00000000 USART4_IRQHandler
20000264 g     O .bss	00000001 pd_power_error
00003eca g     F .text	00000018 TIM_GetITStatus
00003d1e g     F .text	0000003e RCC_GetClocksFreq
00001462 g     F .text	00000018 read_water_lost
000037d6  w      .text	00000000 DMA1_Channel6_IRQHandler
00001c10 g     F .text	00000014 my_i2c_write_addr
00002b1e g     F .text	00000002 my_spi_disconnect
00004c7a g     F .text	00000042 __sfputs_r
0000116e g     F .text	00000020 my_pd_open_valve
00003c10 g     F .text	00000022 I2C_NACKPositionConfig
000054e8 g     F .text	00000018 memchr
20000238 g     O .data	00000004 DeviceStatus
000002ee g     F .text	0000001a PD_SINK_Init
00003eee g     F .text	00000090 USART_Init
000013b0 g     F .text	00000018 water_leak_up_callback
00004ad6 g     F .text	000000a8 _free_r
000037d6  w      .text	00000000 TIM3_IRQHandler
000022fe g     F .text	00000062 TIM1_Init
00000130 g     F .text	0000000c .hidden __riscv_save_3
0000266c g     F .text	0000000c my_Valve_Connect_PD
000037d6  w      .text	00000000 TIM1_TRG_COM_IRQHandler
20000244 g     O .data	00000004 CFGHR_tmpC
000037d6  w      .text	00000000 DMA1_Channel1_IRQHandler
00003c90 g     F .text	00000008 IWDG_WriteAccessCmd
00000000 g       .init	00000000 _start
20000028 g     O .data	00000010 AHBPrescTable
00003c32 g     F .text	00000032 I2C_GetFlagStatus
00005568 g     F .text	00000010 _lseek
20000259 g     O .bss	00000001 PDO_Len
000022f2 g     F .text	00000006 pd_chip_lock_voltage_set
00003eb8 g     F .text	00000012 TIM_ITConfig
0000027e g     F .text	00000052 PD_Rx_Mode
00002782 g     F .text	00000002 my_Spi_Connect_Error
00002b20 g     F .text	0000001c my_time_tick
00003cb6 g     F .text	0000000e IWDG_Enable
0000143a g     F .text	00000016 read_key_off
000036f4 g     F .text	0000007a warning_init
2000027c g     O .bss	00000001 led_valve_on_pause_flag
20000293 g     O .bss	00000001 receive_buff_size
000026e0 g     F .text	0000003e my_Valve_Controls_Close
000020e6 g     F .text	00000166 my_SC8726_Control_Handle
200002ac g     O .bss	00000004 valve_tick
000037d6  w      .text	00000000 DMA1_Channel8_IRQHandler
00003496 g     F .text	00000006 get_valve_status
2000029c g     O .bss	00000001 spi_test_addr
00002772 g     F .text	00000006 my_Valve_Set_close_timeout
00002b1c g     F .text	00000002 my_spi_SRC
00003b66 g     F .text	00000018 I2C_Cmd
20000218 g     O .data	00000004 SinkCap_5V1A_Tab
20000000 g     O .data	0000001c SrcCap_Ext_Tab
00005422 g     F .text	00000030 _close_r
20000000 g       .dalign	00000000 _data_vma
0000177a g     F .text	00000018 beep_key_down
000007a6 g     F .text	000000be PD_Phy_SendPack
00002684 g     F .text	0000001e my_Valve_Disconnect
000044f6 g     F .text	000000fc __swsetup_r
2000001c g     O .data	0000000c SrcCap_Tab
000037d6  w      .text	00000000 PIOC_IRQHandler
20000258 g     O .bss	00000001 CC_Select
00002008 g     F .text	000000de my_SC8726_Init_Handle
000048aa g     F .text	000000a0 __sfp
2000042c g     O .bss	00000054 water_leak_btn
00001318 g     F .text	00000016 button_handle
20000220 g     O .data	00000001 SrcCap_size
00000108 g     F .text	00000028 .hidden __riscv_save_10
00005324 g     F .text	0000002c __sread
00003bea g     F .text	00000012 I2C_Send7bitAddress
2000029d g     O .bss	00000001 spi_test_size
20000296 g     O .bss	00000002 spi_Current
00005500 g     F .text	00000002 __malloc_lock
00003796 g     F .text	0000001a valvefail_warning_disable
2000026f g     O .bss	00000001 switch_state_pd
0000014a g     F .text	00000016 .hidden __riscv_restore_4
00001284 g     F .text	00000094 Button_Cycle_Process
00000140 g     F .text	00000020 .hidden __riscv_restore_8
0000165e g     F .text	00000018 beep_three_times
000034be g     F .text	0000000c valve_detect_timer_callback
00004722 g     F .text	00000066 _fflush_r
00000116 g     F .text	0000001a .hidden __riscv_save_6
00005f04 g     O .text	00000020 __sf_fake_stdin
0000298c g     F .text	00000054 my_spi_write
200002d0 g     O .bss	00000008 MasterSensorLostEvent
00000160 g     F .text	000000a8 memset
000032d0 g     F .text	00000028 valve_turn_control
00000140 g     F .text	00000020 .hidden __riscv_restore_9
0000014a g     F .text	00000016 .hidden __riscv_restore_7
00001a90 g     F .text	000000bc main
00001a5e g     F .text	00000032 IWDG_Feed_Init
00002778 g     F .text	0000000a my_Valve_Set_Status
2000029b g     O .bss	00000001 spi_snk_flag
00000258 g     F .text	00000026 get_PD_Vbus_Current
00001762 g     F .text	00000018 beep_stop
000053c8 g     F .text	00000006 __sclose
00002b9a g     F .text	00000008 my_spi_check_valve
0000361e g     F .text	00000016 MasterSensorLostEventCallback
00001b4c g     F .text	000000ac IIC_Init
20000278 g     O .bss	00000004 led_tick
00004b7e g     F .text	000000d4 _malloc_r
000053ce g     F .text	0000001e __ascii_wctomb
00001676 g     F .text	00000038 led_valve_fail
000037d6  w      .text	00000000 DMA1_Channel5_IRQHandler
00004002 g     F .text	00000036 Delay_Ms
00003690 g     F .text	0000004c warning_enable
00001726 g     F .text	0000003c led_water_alarm_start
20000240 g     O .data	00000004 CFGHR_tmpB
00003dca g     F .text	0000001a SPI_Cmd
00000636 g     F .text	00000170 PD_Det_Proc
2000117c g     O .bss	00000014 my_i2c_control
00003150 g     F .text	00000042 SystemInit
00000a56 g     F .text	0000001e PD_Send_Handle
000041b2 g     F .text	00000040 iprintf
20000265 g     O .bss	00000001 pd_valve_status
00001f78 g     F .text	00000074 my_SC8726_Set_Out_Vbus
00000000 g       .init	00000000 _sinit
00001450 g     F .text	00000012 read_water_leak
000053ec g     F .text	00000036 _write_r
00001792 g     F .text	00000010 beep_once
000037d6  w      .text	00000000 DMA1_Channel3_IRQHandler
20000288 g     O .bss	00000004 valve_check_time
20000280 g     O .bss	00000001 PD_STATUS
200011c8 g     O .bss	00000014 valve_check_timer
20000270 g     O .bss	00000001 switch_state_pd_flag
00004f44 g     F .text	0000010c _printf_common
2000024c g     O .data	00000004 _impure_ptr
000025cc g     F .text	00000044 TIM1_UP_IRQHandler
000045f2 g     F .text	00000130 __sflush_r
000034ca g     F .text	00000030 valve_timer_check
000013c8 g     F .text	00000022 water_leak_down_callback
00001424 g     F .text	00000016 read_key_on
00000a08 g     F .text	0000004e PD_Load_Header
000037d6  w      .text	00000000 WWDG_IRQHandler
00004aa4 g     F .text	00000032 __ascii_mbtowc
000037d6  w      .text	00000000 Ecall_U_Mode_Handler
20000480 g     O .bss	00000054 water_lost_btn
00003c64 g     F .text	00000020 I2C_GetITStatus
0000024c g     F .text	0000000c my_switch_state_pd
000002d0 g     F .text	0000001e PD_SRC_Init
000017b8 g     F .text	0000001a led_valve_on_resume
00001882 g     F .text	000001c6 led_init
20005000 g       .stack	00000000 _eusrstack
00001fec g     F .text	00000016 my_SC8726_Close_Vbus
00000308 g     F .text	00000050 PD_PHY_Reset
00000130 g     F .text	0000000c .hidden __riscv_save_2
00000b10 g     F .text	000000ae PDO_Request
00001826 g     F .text	0000002c led_valve_on
000037d6  w      .text	00000000 SW_Handler
00003240 g     F .text	00000074 valve_close_timer_callback
000037d6  w      .text	00000000 TIM1_BRK_IRQHandler
000049ba g     F .text	00000058 __swhatbuf_r
00003f94 g     F .text	00000008 USART_SendData
000037d6  w      .text	00000000 OPA_IRQHandler
200002a0 g     O .bss	00000002 spi_time
0000305e g     F .text	00000028 led_start
20000224 g     O .data	00000008 Status_Ext_Tab
00003bfc g     F .text	00000014 I2C_ReadRegister
2000026a g     O .bss	00000001 snk_vbus_type
00000116 g     F .text	0000001a .hidden __riscv_save_5
00004092 g     F .text	0000003e _write
20000258 g       .data	00000000 _edata
20001230 g       .bss	00000000 _end
000036dc g     F .text	00000010 warning_event_bind
0000367a g     F .text	00000016 ExternalValveFailEventCallback
00002b92 g     F .text	00000008 my_spi_close_valve
00003e4a g     F .text	00000056 TIM_TimeBaseInit
00006094 g       .dlalign	00000000 _data_lma
000037d6  w      .text	00000000 USART2_IRQHandler
00005350 g     F .text	00000048 __swrite
00004cbc g     F .text	00000288 _vfiprintf_r
0000494a g     F .text	0000006a _fwalk_reent
00003192 g     F .text	0000003a SystemCoreClockUpdate
2000026e g     O .bss	00000001 src_vbus_type
00003de4 g     F .text	0000001e SPI_I2S_ITConfig
000037d6  w      .text	00000000 DMA1_Channel2_IRQHandler
00002274 g     F .text	0000007e set_sc8726_select
00005f24 g     O .text	00000020 __sf_fake_stdout
0000242c g     F .text	00000014 set_PD_STATUS_SNK
00002866 g     F .text	000000c4 my_SPI_Device_Init
00001a48 g     F .text	00000016 my_rcc
0000013c g     F .text	00000024 .hidden __riscv_restore_12
00005f90 g     O .text	00000101 _ctype_
00005578 g     F .text	00000010 _read
000037d8  w      .text	00000000 handle_reset
00003c98 g     F .text	00000008 IWDG_SetPrescaler
00003664 g     F .text	00000016 InternalValveFailEventCallback
000037d6  w      .text	00000000 FLASH_IRQHandler
00000130 g     F .text	0000000c .hidden __riscv_save_0
000037d6  w      .text	00000000 USBFSWakeUp_IRQHandler
00002360 g     F .text	00000072 TIM2_Init
000037d6  w      .text	00000000 USART1_IRQHandler
00004a12 g     F .text	00000092 __smakebuf_r
00003bb2 g     F .text	0000001a I2C_AcknowledgeConfig
000042d2 g     F .text	00000012 strlen
00005050 g     F .text	000002a2 _printf_i
000049b4 g     F .text	00000006 __locale_ctype_ptr_l
200002ec g     O .bss	00000004 __malloc_sbrk_start
200002c0 g     O .bss	00000008 MasterLowTempEvent
00003b98 g     F .text	0000001a I2C_GenerateSTOP
00001e2c g     F .text	0000003e I2C1_ER_IRQHandler
20000310 g     O .bss	0000001c PD_Ctl
00003d98 g     F .text	00000032 SPI_Init
00003cc4 g     F .text	00000006 NVIC_PriorityGroupConfig
20000260 g     O .bss	00000001 Vbus_Select
200002e8 g     O .bss	00000004 __malloc_free_list
00000154 g     F .text	0000000c .hidden __riscv_restore_1
0000364e g     F .text	00000016 MasterLowTempEventCallback
00003c84 g     F .text	0000000c I2C_ClearITPendingBit
00004cbc g     F .text	00000288 _vfprintf_r
20000350 g     O .bss	00000022 PD_Tx_Buf
200011bc g     O .bss	0000000a spi_test_buff
000034fa g     F .text	00000042 valve_handle
000030b4 g     F .text	0000009c led_ticks
000039da g     F .text	0000000a GPIO_ReadInputDataBit
2000029a g     O .bss	00000001 spi_flag
20000284 g     O .bss	00000004 valve_check_hour_count
000016ea g     F .text	0000003c led_master_lost_start
000017a2 g     F .text	00000016 led_valve_on_pause
200000a8 g     O .data	0000016c __global_locale
200002d8 g     O .bss	00000008 NowEvent
00005538 g     F .text	00000010 _close
000013ea g     F .text	00000022 water_lost_plugout_callback
00001bf8 g     F .text	00000018 my_i2c_read_addr



Disassembly of section .init:

00000000 <_sinit>:
   0:	7d80306f          	j	37d8 <handle_reset>

Disassembly of section .vector:

00000004 <_vector_base>:
	...
   c:	132e                	slli	t1,t1,0x2b
   e:	0000                	unimp
  10:	1330                	addi	a2,sp,424
  12:	0000                	unimp
  14:	0000                	unimp
  16:	0000                	unimp
  18:	37d6                	lhu	a3,44(a5)
	...
  22:	0000                	unimp
  24:	37d6                	lhu	a3,44(a5)
  26:	0000                	unimp
  28:	37d6                	lhu	a3,44(a5)
	...
  32:	0000                	unimp
  34:	37d6                	lhu	a3,44(a5)
  36:	0000                	unimp
  38:	0000                	unimp
  3a:	0000                	unimp
  3c:	37d6                	lhu	a3,44(a5)
  3e:	0000                	unimp
  40:	0000                	unimp
  42:	0000                	unimp
  44:	37d6                	lhu	a3,44(a5)
  46:	0000                	unimp
  48:	37d6                	lhu	a3,44(a5)
  4a:	0000                	unimp
  4c:	37d6                	lhu	a3,44(a5)
  4e:	0000                	unimp
  50:	0000                	unimp
  52:	0000                	unimp
  54:	37d6                	lhu	a3,44(a5)
  56:	0000                	unimp
  58:	37d6                	lhu	a3,44(a5)
  5a:	0000                	unimp
  5c:	37d6                	lhu	a3,44(a5)
  5e:	0000                	unimp
  60:	37d6                	lhu	a3,44(a5)
  62:	0000                	unimp
  64:	37d6                	lhu	a3,44(a5)
  66:	0000                	unimp
  68:	37d6                	lhu	a3,44(a5)
  6a:	0000                	unimp
  6c:	37d6                	lhu	a3,44(a5)
  6e:	0000                	unimp
  70:	37d6                	lhu	a3,44(a5)
  72:	0000                	unimp
  74:	37d6                	lhu	a3,44(a5)
  76:	0000                	unimp
  78:	37d6                	lhu	a3,44(a5)
  7a:	0000                	unimp
  7c:	1c24                	addi	s1,sp,568
  7e:	0000                	unimp
  80:	1e2c                	addi	a1,sp,824
  82:	0000                	unimp
  84:	37d6                	lhu	a3,44(a5)
  86:	0000                	unimp
  88:	29e0                	lbu	s0,22(a1)
  8a:	0000                	unimp
  8c:	37d6                	lhu	a3,44(a5)
  8e:	0000                	unimp
  90:	25cc                	lbu	a1,12(a1)
  92:	0000                	unimp
  94:	37d6                	lhu	a3,44(a5)
  96:	0000                	unimp
  98:	37d6                	lhu	a3,44(a5)
  9a:	0000                	unimp
  9c:	2610                	lbu	a2,8(a2)
  9e:	0000                	unimp
  a0:	37d6                	lhu	a3,44(a5)
  a2:	0000                	unimp
  a4:	37d6                	lhu	a3,44(a5)
  a6:	0000                	unimp
  a8:	37d6                	lhu	a3,44(a5)
  aa:	0000                	unimp
  ac:	37d6                	lhu	a3,44(a5)
  ae:	0000                	unimp
  b0:	37d6                	lhu	a3,44(a5)
  b2:	0000                	unimp
  b4:	37d6                	lhu	a3,44(a5)
  b6:	0000                	unimp
  b8:	37d6                	lhu	a3,44(a5)
  ba:	0000                	unimp
  bc:	37d6                	lhu	a3,44(a5)
  be:	0000                	unimp
  c0:	37d6                	lhu	a3,44(a5)
  c2:	0000                	unimp
  c4:	37d6                	lhu	a3,44(a5)
  c6:	0000                	unimp
  c8:	0864                	addi	s1,sp,28
  ca:	0000                	unimp
  cc:	37d6                	lhu	a3,44(a5)
  ce:	0000                	unimp
  d0:	37d6                	lhu	a3,44(a5)
  d2:	0000                	unimp
  d4:	37d6                	lhu	a3,44(a5)
  d6:	0000                	unimp
  d8:	37d6                	lhu	a3,44(a5)
  da:	0000                	unimp
  dc:	37d6                	lhu	a3,44(a5)
	...

Disassembly of section .text:

00000100 <__riscv_save_12>:
     100:	7139                	addi	sp,sp,-64
     102:	4301                	li	t1,0
     104:	c66e                	sw	s11,12(sp)
     106:	a019                	j	10c <__riscv_save_10+0x4>

00000108 <__riscv_save_10>:
     108:	7139                	addi	sp,sp,-64
     10a:	5341                	li	t1,-16
     10c:	c86a                	sw	s10,16(sp)
     10e:	ca66                	sw	s9,20(sp)
     110:	cc62                	sw	s8,24(sp)
     112:	ce5e                	sw	s7,28(sp)
     114:	a019                	j	11a <__riscv_save_4+0x4>

00000116 <__riscv_save_4>:
     116:	7139                	addi	sp,sp,-64
     118:	5301                	li	t1,-32
     11a:	d05a                	sw	s6,32(sp)
     11c:	d256                	sw	s5,36(sp)
     11e:	d452                	sw	s4,40(sp)
     120:	d64e                	sw	s3,44(sp)
     122:	d84a                	sw	s2,48(sp)
     124:	da26                	sw	s1,52(sp)
     126:	dc22                	sw	s0,56(sp)
     128:	de06                	sw	ra,60(sp)
     12a:	40610133          	sub	sp,sp,t1
     12e:	8282                	jr	t0

00000130 <__riscv_save_0>:
     130:	1141                	addi	sp,sp,-16
     132:	c04a                	sw	s2,0(sp)
     134:	c226                	sw	s1,4(sp)
     136:	c422                	sw	s0,8(sp)
     138:	c606                	sw	ra,12(sp)
     13a:	8282                	jr	t0

0000013c <__riscv_restore_12>:
     13c:	4db2                	lw	s11,12(sp)
     13e:	0141                	addi	sp,sp,16

00000140 <__riscv_restore_10>:
     140:	4d02                	lw	s10,0(sp)
     142:	4c92                	lw	s9,4(sp)
     144:	4c22                	lw	s8,8(sp)
     146:	4bb2                	lw	s7,12(sp)
     148:	0141                	addi	sp,sp,16

0000014a <__riscv_restore_4>:
     14a:	4b02                	lw	s6,0(sp)
     14c:	4a92                	lw	s5,4(sp)
     14e:	4a22                	lw	s4,8(sp)
     150:	49b2                	lw	s3,12(sp)
     152:	0141                	addi	sp,sp,16

00000154 <__riscv_restore_0>:
     154:	4902                	lw	s2,0(sp)
     156:	4492                	lw	s1,4(sp)
     158:	4422                	lw	s0,8(sp)
     15a:	40b2                	lw	ra,12(sp)
     15c:	0141                	addi	sp,sp,16
     15e:	8082                	ret

00000160 <memset>:
     160:	433d                	li	t1,15
     162:	872a                	mv	a4,a0
     164:	02c37363          	bgeu	t1,a2,18a <memset+0x2a>
     168:	00f77793          	andi	a5,a4,15
     16c:	efbd                	bnez	a5,1ea <memset+0x8a>
     16e:	e5ad                	bnez	a1,1d8 <memset+0x78>
     170:	ff067693          	andi	a3,a2,-16
     174:	8a3d                	andi	a2,a2,15
     176:	96ba                	add	a3,a3,a4
     178:	c30c                	sw	a1,0(a4)
     17a:	c34c                	sw	a1,4(a4)
     17c:	c70c                	sw	a1,8(a4)
     17e:	c74c                	sw	a1,12(a4)
     180:	0741                	addi	a4,a4,16
     182:	fed76be3          	bltu	a4,a3,178 <memset+0x18>
     186:	e211                	bnez	a2,18a <memset+0x2a>
     188:	8082                	ret
     18a:	40c306b3          	sub	a3,t1,a2
     18e:	068a                	slli	a3,a3,0x2
     190:	00000297          	auipc	t0,0x0
     194:	9696                	add	a3,a3,t0
     196:	00a68067          	jr	10(a3)
     19a:	00b70723          	sb	a1,14(a4)
     19e:	00b706a3          	sb	a1,13(a4)
     1a2:	00b70623          	sb	a1,12(a4)
     1a6:	00b705a3          	sb	a1,11(a4)
     1aa:	00b70523          	sb	a1,10(a4)
     1ae:	00b704a3          	sb	a1,9(a4)
     1b2:	00b70423          	sb	a1,8(a4)
     1b6:	00b703a3          	sb	a1,7(a4)
     1ba:	00b70323          	sb	a1,6(a4)
     1be:	00b702a3          	sb	a1,5(a4)
     1c2:	00b70223          	sb	a1,4(a4)
     1c6:	00b701a3          	sb	a1,3(a4)
     1ca:	00b70123          	sb	a1,2(a4)
     1ce:	00b700a3          	sb	a1,1(a4)
     1d2:	00b70023          	sb	a1,0(a4)
     1d6:	8082                	ret
     1d8:	0ff5f593          	andi	a1,a1,255
     1dc:	00859693          	slli	a3,a1,0x8
     1e0:	8dd5                	or	a1,a1,a3
     1e2:	01059693          	slli	a3,a1,0x10
     1e6:	8dd5                	or	a1,a1,a3
     1e8:	b761                	j	170 <memset+0x10>
     1ea:	00279693          	slli	a3,a5,0x2
     1ee:	00000297          	auipc	t0,0x0
     1f2:	9696                	add	a3,a3,t0
     1f4:	8286                	mv	t0,ra
     1f6:	fa8680e7          	jalr	-88(a3)
     1fa:	8096                	mv	ra,t0
     1fc:	17c1                	addi	a5,a5,-16
     1fe:	8f1d                	sub	a4,a4,a5
     200:	963e                	add	a2,a2,a5
     202:	f8c374e3          	bgeu	t1,a2,18a <memset+0x2a>
     206:	b7a5                	j	16e <memset+0xe>

00000208 <my_set_Vbus_Current>:
     208:	00151793          	slli	a5,a0,0x1
     20c:	8b89                	andi	a5,a5,2
     20e:	97ae                	add	a5,a5,a1
     210:	80f19a23          	sh	a5,-2028(gp) # 2000022c <Vbus_Current>
     214:	200007b7          	lui	a5,0x20000
     218:	01c78793          	addi	a5,a5,28 # 2000001c <SrcCap_Tab>
     21c:	3798                	lbu	a4,9(a5)
     21e:	00157693          	andi	a3,a0,1
     222:	a78c                	sb	a1,8(a5)
     224:	9b71                	andi	a4,a4,-4
     226:	8f55                	or	a4,a4,a3
     228:	b798                	sb	a4,9(a5)
     22a:	8105                	srli	a0,a0,0x1
     22c:	4709                	li	a4,2
     22e:	80818793          	addi	a5,gp,-2040 # 20000220 <SrcCap_size>
     232:	00a77a63          	bgeu	a4,a0,246 <my_set_Vbus_Current+0x3e>
     236:	efbff2ef          	jal	t0,130 <__riscv_save_0>
     23a:	4731                	li	a4,12
     23c:	450d                	li	a0,3
     23e:	a398                	sb	a4,0(a5)
     240:	0b2020ef          	jal	ra,22f2 <pd_chip_lock_voltage_set>
     244:	bf01                	j	154 <__riscv_restore_0>
     246:	4711                	li	a4,4
     248:	a398                	sb	a4,0(a5)
     24a:	8082                	ret

0000024c <my_switch_state_pd>:
     24c:	4705                	li	a4,1
     24e:	84e18c23          	sb	a4,-1960(gp) # 20000270 <switch_state_pd_flag>
     252:	84a18ba3          	sb	a0,-1961(gp) # 2000026f <switch_state_pd>
     256:	8082                	ret

00000258 <get_PD_Vbus_Current>:
     258:	4789                	li	a5,2
     25a:	00a7ef63          	bltu	a5,a0,278 <get_PD_Vbus_Current+0x20>
     25e:	200007b7          	lui	a5,0x20000
     262:	050a                	slli	a0,a0,0x2
     264:	01c78793          	addi	a5,a5,28 # 2000001c <SrcCap_Tab>
     268:	97aa                	add	a5,a5,a0
     26a:	3388                	lbu	a0,1(a5)
     26c:	239c                	lbu	a5,0(a5)
     26e:	0522                	slli	a0,a0,0x8
     270:	30057513          	andi	a0,a0,768
     274:	953e                	add	a0,a0,a5
     276:	8082                	ret
     278:	12c00513          	li	a0,300
     27c:	8082                	ret

0000027e <PD_Rx_Mode>:
     27e:	400277b7          	lui	a5,0x40027
     282:	239a                	lhu	a4,0(a5)
     284:	00276713          	ori	a4,a4,2
     288:	a39a                	sh	a4,0(a5)
     28a:	239a                	lhu	a4,0(a5)
     28c:	0742                	slli	a4,a4,0x10
     28e:	8341                	srli	a4,a4,0x10
     290:	9b75                	andi	a4,a4,-3
     292:	0742                	slli	a4,a4,0x10
     294:	8341                	srli	a4,a4,0x10
     296:	a39a                	sh	a4,0(a5)
     298:	2396                	lhu	a3,0(a5)
     29a:	6719                	lui	a4,0x6
     29c:	0721                	addi	a4,a4,8
     29e:	8f55                	or	a4,a4,a3
     2a0:	a39a                	sh	a4,0(a5)
     2a2:	91418713          	addi	a4,gp,-1772 # 2000032c <PD_Rx_Buf>
     2a6:	0742                	slli	a4,a4,0x10
     2a8:	8341                	srli	a4,a4,0x10
     2aa:	ab9a                	sh	a4,16(a5)
     2ac:	23d8                	lbu	a4,4(a5)
     2ae:	0fe77713          	andi	a4,a4,254
     2b2:	a3d8                	sb	a4,4(a5)
     2b4:	07700713          	li	a4,119
     2b8:	a3ba                	sh	a4,2(a5)
     2ba:	23d8                	lbu	a4,4(a5)
     2bc:	00276713          	ori	a4,a4,2
     2c0:	a3d8                	sb	a4,4(a5)
     2c2:	e000e7b7          	lui	a5,0xe000e
     2c6:	00020737          	lui	a4,0x20
     2ca:	10e7a223          	sw	a4,260(a5) # e000e104 <_eusrstack+0xc0009104>
     2ce:	8082                	ret

000002d0 <PD_SRC_Init>:
     2d0:	8f818713          	addi	a4,gp,-1800 # 20000310 <PD_Ctl>
     2d4:	2f1c                	lbu	a5,24(a4)
     2d6:	fcf7f793          	andi	a5,a5,-49
     2da:	0307e793          	ori	a5,a5,48
     2de:	af1c                	sb	a5,24(a4)
     2e0:	400277b7          	lui	a5,0x40027
     2e4:	0a400713          	li	a4,164
     2e8:	a7da                	sh	a4,12(a5)
     2ea:	a7fa                	sh	a4,14(a5)
     2ec:	8082                	ret

000002ee <PD_SINK_Init>:
     2ee:	8f818793          	addi	a5,gp,-1800 # 20000310 <PD_Ctl>
     2f2:	2f98                	lbu	a4,24(a5)
     2f4:	fcf77713          	andi	a4,a4,-49
     2f8:	af98                	sb	a4,24(a5)
     2fa:	400277b7          	lui	a5,0x40027
     2fe:	0a200713          	li	a4,162
     302:	a7da                	sh	a4,12(a5)
     304:	a7fa                	sh	a4,14(a5)
     306:	8082                	ret

00000308 <PD_PHY_Reset>:
     308:	e29ff2ef          	jal	t0,130 <__riscv_save_0>
     30c:	0c6020ef          	jal	ra,23d2 <get_PD_Status>
     310:	8f818413          	addi	s0,gp,-1800 # 20000310 <PD_Ctl>
     314:	e911                	bnez	a0,328 <PD_PHY_Reset+0x20>
     316:	3fe1                	jal	2ee <PD_SINK_Init>
     318:	2c1e                	lhu	a5,24(s0)
     31a:	777d                	lui	a4,0xfffff
     31c:	176d                	addi	a4,a4,-5
     31e:	8ff9                	and	a5,a5,a4
     320:	00042023          	sw	zero,0(s0)
     324:	ac1e                	sh	a5,24(s0)
     326:	b53d                	j	154 <__riscv_restore_0>
     328:	f8000793          	li	a5,-128
     32c:	a85c                	sb	a5,20(s0)
     32e:	2c1e                	lhu	a5,24(s0)
     330:	777d                	lui	a4,0xfffff
     332:	fb070713          	addi	a4,a4,-80 # ffffefb0 <_eusrstack+0xdfff9fb0>
     336:	8ff9                	and	a5,a5,a4
     338:	0487e793          	ori	a5,a5,72
     33c:	ac1e                	sh	a5,24(s0)
     33e:	00040423          	sb	zero,8(s0)
     342:	00040523          	sb	zero,10(s0)
     346:	00041723          	sh	zero,14(s0)
     34a:	00041923          	sh	zero,18(s0)
     34e:	00042023          	sw	zero,0(s0)
     352:	3fbd                	jal	2d0 <PD_SRC_Init>
     354:	372d                	jal	27e <PD_Rx_Mode>
     356:	bfc1                	j	326 <PD_PHY_Reset+0x1e>

00000358 <PD_Init>:
     358:	dd9ff2ef          	jal	t0,130 <__riscv_save_0>
     35c:	1141                	addi	sp,sp,-16
     35e:	67b1                	lui	a5,0xc
     360:	4405                	li	s0,1
     362:	c23e                	sw	a5,4(sp)
     364:	004c                	addi	a1,sp,4
     366:	4791                	li	a5,4
     368:	40011537          	lui	a0,0x40011
     36c:	c422                	sw	s0,8(sp)
     36e:	c63e                	sw	a5,12(sp)
     370:	4fc030ef          	jal	ra,386c <GPIO_Init>
     374:	40010737          	lui	a4,0x40010
     378:	4f1c                	lw	a5,24(a4)
     37a:	4671                	li	a2,28
     37c:	3007e793          	ori	a5,a5,768
     380:	cf1c                	sw	a5,24(a4)
     382:	400277b7          	lui	a5,0x40027
     386:	4721                	li	a4,8
     388:	a39a                	sh	a4,0(a5)
     38a:	5771                	li	a4,-4
     38c:	b798                	sb	a4,9(a5)
     38e:	4581                	li	a1,0
     390:	8f818513          	addi	a0,gp,-1800 # 20000310 <PD_Ctl>
     394:	33f1                	jal	160 <memset>
     396:	8d818513          	addi	a0,gp,-1832 # 200002f0 <Adapter_SrcCap>
     39a:	4611                	li	a2,4
     39c:	80418593          	addi	a1,gp,-2044 # 2000021c <SrcCap_5V3A_Tab>
     3a0:	a100                	sb	s0,0(a0)
     3a2:	0505                	addi	a0,a0,1
     3a4:	55d030ef          	jal	ra,4100 <memcpy>
     3a8:	3785                	jal	308 <PD_PHY_Reset>
     3aa:	3dd1                	jal	27e <PD_Rx_Mode>
     3ac:	0141                	addi	sp,sp,16
     3ae:	b35d                	j	154 <__riscv_restore_0>

000003b0 <PD_Detect>:
     3b0:	d81ff2ef          	jal	t0,130 <__riscv_save_0>
     3b4:	9101d783          	lhu	a5,-1776(gp) # 20000328 <PD_Ctl+0x18>
     3b8:	40027437          	lui	s0,0x40027
     3bc:	8b89                	andi	a5,a5,2
     3be:	14078663          	beqz	a5,50a <PD_Detect+0x15a>
     3c2:	245e                	lhu	a5,12(s0)
     3c4:	8b89                	andi	a5,a5,2
     3c6:	cbc1                	beqz	a5,456 <PD_Detect+0xa6>
     3c8:	8401c783          	lbu	a5,-1984(gp) # 20000258 <_edata>
     3cc:	4705                	li	a4,1
     3ce:	04e79063          	bne	a5,a4,40e <PD_Detect+0x5e>
     3d2:	245e                	lhu	a5,12(s0)
     3d4:	4509                	li	a0,2
     3d6:	07c2                	slli	a5,a5,0x10
     3d8:	83c1                	srli	a5,a5,0x10
     3da:	f1e7f793          	andi	a5,a5,-226
     3de:	07c2                	slli	a5,a5,0x10
     3e0:	83c1                	srli	a5,a5,0x10
     3e2:	a45e                	sh	a5,12(s0)
     3e4:	245e                	lhu	a5,12(s0)
     3e6:	0407e793          	ori	a5,a5,64
     3ea:	a45e                	sh	a5,12(s0)
     3ec:	3e1030ef          	jal	ra,3fcc <Delay_Us>
     3f0:	244a                	lhu	a0,12(s0)
     3f2:	245e                	lhu	a5,12(s0)
     3f4:	8905                	andi	a0,a0,1
     3f6:	07c2                	slli	a5,a5,0x10
     3f8:	83c1                	srli	a5,a5,0x10
     3fa:	f1e7f793          	andi	a5,a5,-226
     3fe:	07c2                	slli	a5,a5,0x10
     400:	83c1                	srli	a5,a5,0x10
     402:	a45e                	sh	a5,12(s0)
     404:	245e                	lhu	a5,12(s0)
     406:	0a07e793          	ori	a5,a5,160
     40a:	a45e                	sh	a5,12(s0)
     40c:	b3a1                	j	154 <__riscv_restore_0>
     40e:	4709                	li	a4,2
     410:	04e79163          	bne	a5,a4,452 <PD_Detect+0xa2>
     414:	247e                	lhu	a5,14(s0)
     416:	4509                	li	a0,2
     418:	07c2                	slli	a5,a5,0x10
     41a:	83c1                	srli	a5,a5,0x10
     41c:	f1e7f793          	andi	a5,a5,-226
     420:	07c2                	slli	a5,a5,0x10
     422:	83c1                	srli	a5,a5,0x10
     424:	a47e                	sh	a5,14(s0)
     426:	247e                	lhu	a5,14(s0)
     428:	0407e793          	ori	a5,a5,64
     42c:	a47e                	sh	a5,14(s0)
     42e:	39f030ef          	jal	ra,3fcc <Delay_Us>
     432:	247a                	lhu	a4,14(s0)
     434:	247e                	lhu	a5,14(s0)
     436:	07c2                	slli	a5,a5,0x10
     438:	83c1                	srli	a5,a5,0x10
     43a:	f1e7f793          	andi	a5,a5,-226
     43e:	07c2                	slli	a5,a5,0x10
     440:	83c1                	srli	a5,a5,0x10
     442:	a47e                	sh	a5,14(s0)
     444:	247e                	lhu	a5,14(s0)
     446:	0a07e793          	ori	a5,a5,160
     44a:	a47e                	sh	a5,14(s0)
     44c:	00177793          	andi	a5,a4,1
     450:	e7dd                	bnez	a5,4fe <PD_Detect+0x14e>
     452:	4501                	li	a0,0
     454:	bf65                	j	40c <PD_Detect+0x5c>
     456:	245e                	lhu	a5,12(s0)
     458:	4509                	li	a0,2
     45a:	07c2                	slli	a5,a5,0x10
     45c:	83c1                	srli	a5,a5,0x10
     45e:	f1e7f793          	andi	a5,a5,-226
     462:	07c2                	slli	a5,a5,0x10
     464:	83c1                	srli	a5,a5,0x10
     466:	a45e                	sh	a5,12(s0)
     468:	245e                	lhu	a5,12(s0)
     46a:	0407e793          	ori	a5,a5,64
     46e:	a45e                	sh	a5,12(s0)
     470:	35d030ef          	jal	ra,3fcc <Delay_Us>
     474:	2446                	lhu	s1,12(s0)
     476:	245e                	lhu	a5,12(s0)
     478:	4509                	li	a0,2
     47a:	8885                	andi	s1,s1,1
     47c:	07c2                	slli	a5,a5,0x10
     47e:	83c1                	srli	a5,a5,0x10
     480:	f1e7f793          	andi	a5,a5,-226
     484:	07c2                	slli	a5,a5,0x10
     486:	83c1                	srli	a5,a5,0x10
     488:	a45e                	sh	a5,12(s0)
     48a:	245e                	lhu	a5,12(s0)
     48c:	0a07e793          	ori	a5,a5,160
     490:	a45e                	sh	a5,12(s0)
     492:	247e                	lhu	a5,14(s0)
     494:	07c2                	slli	a5,a5,0x10
     496:	83c1                	srli	a5,a5,0x10
     498:	f1e7f793          	andi	a5,a5,-226
     49c:	07c2                	slli	a5,a5,0x10
     49e:	83c1                	srli	a5,a5,0x10
     4a0:	a47e                	sh	a5,14(s0)
     4a2:	247e                	lhu	a5,14(s0)
     4a4:	0407e793          	ori	a5,a5,64
     4a8:	a47e                	sh	a5,14(s0)
     4aa:	323030ef          	jal	ra,3fcc <Delay_Us>
     4ae:	247e                	lhu	a5,14(s0)
     4b0:	247a                	lhu	a4,14(s0)
     4b2:	8b85                	andi	a5,a5,1
     4b4:	0742                	slli	a4,a4,0x10
     4b6:	8341                	srli	a4,a4,0x10
     4b8:	f1e77713          	andi	a4,a4,-226
     4bc:	0742                	slli	a4,a4,0x10
     4be:	8341                	srli	a4,a4,0x10
     4c0:	a47a                	sh	a4,14(s0)
     4c2:	247a                	lhu	a4,14(s0)
     4c4:	0a076713          	ori	a4,a4,160
     4c8:	a47a                	sh	a4,14(s0)
     4ca:	40011737          	lui	a4,0x40011
     4ce:	4718                	lw	a4,8(a4)
     4d0:	01171693          	slli	a3,a4,0x11
     4d4:	0006d463          	bgez	a3,4dc <PD_Detect+0x12c>
     4d8:	0404e493          	ori	s1,s1,64
     4dc:	40011737          	lui	a4,0x40011
     4e0:	4718                	lw	a4,8(a4)
     4e2:	01071693          	slli	a3,a4,0x10
     4e6:	0006d463          	bgez	a3,4ee <PD_Detect+0x13e>
     4ea:	0407e793          	ori	a5,a5,64
     4ee:	40027737          	lui	a4,0x40027
     4f2:	231a                	lhu	a4,0(a4)
     4f4:	8b11                	andi	a4,a4,4
     4f6:	c711                	beqz	a4,502 <PD_Detect+0x152>
     4f8:	0407f793          	andi	a5,a5,64
     4fc:	fbb9                	bnez	a5,452 <PD_Detect+0xa2>
     4fe:	4509                	li	a0,2
     500:	b731                	j	40c <PD_Detect+0x5c>
     502:	0404c513          	xori	a0,s1,64
     506:	8119                	srli	a0,a0,0x6
     508:	b711                	j	40c <PD_Detect+0x5c>
     50a:	245e                	lhu	a5,12(s0)
     50c:	4509                	li	a0,2
     50e:	07c2                	slli	a5,a5,0x10
     510:	83c1                	srli	a5,a5,0x10
     512:	f1e7f793          	andi	a5,a5,-226
     516:	07c2                	slli	a5,a5,0x10
     518:	83c1                	srli	a5,a5,0x10
     51a:	a45e                	sh	a5,12(s0)
     51c:	245e                	lhu	a5,12(s0)
     51e:	0407e793          	ori	a5,a5,64
     522:	a45e                	sh	a5,12(s0)
     524:	2a9030ef          	jal	ra,3fcc <Delay_Us>
     528:	2446                	lhu	s1,12(s0)
     52a:	245e                	lhu	a5,12(s0)
     52c:	4509                	li	a0,2
     52e:	8885                	andi	s1,s1,1
     530:	07c2                	slli	a5,a5,0x10
     532:	83c1                	srli	a5,a5,0x10
     534:	f1e7f793          	andi	a5,a5,-226
     538:	07c2                	slli	a5,a5,0x10
     53a:	83c1                	srli	a5,a5,0x10
     53c:	a45e                	sh	a5,12(s0)
     53e:	245e                	lhu	a5,12(s0)
     540:	0a07e793          	ori	a5,a5,160
     544:	a45e                	sh	a5,12(s0)
     546:	287030ef          	jal	ra,3fcc <Delay_Us>
     54a:	245e                	lhu	a5,12(s0)
     54c:	8b85                	andi	a5,a5,1
     54e:	c399                	beqz	a5,554 <PD_Detect+0x1a4>
     550:	0084e493          	ori	s1,s1,8
     554:	400117b7          	lui	a5,0x40011
     558:	479c                	lw	a5,8(a5)
     55a:	01179713          	slli	a4,a5,0x11
     55e:	00075463          	bgez	a4,566 <PD_Detect+0x1b6>
     562:	0404e493          	ori	s1,s1,64
     566:	40027937          	lui	s2,0x40027
     56a:	00e95783          	lhu	a5,14(s2) # 4002700e <_eusrstack+0x2002200e>
     56e:	4509                	li	a0,2
     570:	07c2                	slli	a5,a5,0x10
     572:	83c1                	srli	a5,a5,0x10
     574:	f1e7f793          	andi	a5,a5,-226
     578:	07c2                	slli	a5,a5,0x10
     57a:	83c1                	srli	a5,a5,0x10
     57c:	00f91723          	sh	a5,14(s2)
     580:	00e95783          	lhu	a5,14(s2)
     584:	0407e793          	ori	a5,a5,64
     588:	00f91723          	sh	a5,14(s2)
     58c:	241030ef          	jal	ra,3fcc <Delay_Us>
     590:	00e95403          	lhu	s0,14(s2)
     594:	00e95783          	lhu	a5,14(s2)
     598:	4509                	li	a0,2
     59a:	8805                	andi	s0,s0,1
     59c:	07c2                	slli	a5,a5,0x10
     59e:	83c1                	srli	a5,a5,0x10
     5a0:	f1e7f793          	andi	a5,a5,-226
     5a4:	07c2                	slli	a5,a5,0x10
     5a6:	83c1                	srli	a5,a5,0x10
     5a8:	00f91723          	sh	a5,14(s2)
     5ac:	00e95783          	lhu	a5,14(s2)
     5b0:	0a07e793          	ori	a5,a5,160
     5b4:	00f91723          	sh	a5,14(s2)
     5b8:	215030ef          	jal	ra,3fcc <Delay_Us>
     5bc:	00e95783          	lhu	a5,14(s2)
     5c0:	8b85                	andi	a5,a5,1
     5c2:	c399                	beqz	a5,5c8 <PD_Detect+0x218>
     5c4:	00846413          	ori	s0,s0,8
     5c8:	400117b7          	lui	a5,0x40011
     5cc:	479c                	lw	a5,8(a5)
     5ce:	01079713          	slli	a4,a5,0x10
     5d2:	00075463          	bgez	a4,5da <PD_Detect+0x22a>
     5d6:	04046413          	ori	s0,s0,64
     5da:	400277b7          	lui	a5,0x40027
     5de:	27de                	lhu	a5,12(a5)
     5e0:	8b89                	andi	a5,a5,2
     5e2:	cb89                	beqz	a5,5f4 <PD_Detect+0x244>
     5e4:	8805                	andi	s0,s0,1
     5e6:	0014f513          	andi	a0,s1,1
     5ea:	e20401e3          	beqz	s0,40c <PD_Detect+0x5c>
     5ee:	d901                	beqz	a0,4fe <PD_Detect+0x14e>
     5f0:	4505                	li	a0,1
     5f2:	bd29                	j	40c <PD_Detect+0x5c>
     5f4:	0484f793          	andi	a5,s1,72
     5f8:	4721                	li	a4,8
     5fa:	4501                	li	a0,0
     5fc:	00e79b63          	bne	a5,a4,612 <PD_Detect+0x262>
     600:	04047793          	andi	a5,s0,64
     604:	4505                	li	a0,1
     606:	e791                	bnez	a5,612 <PD_Detect+0x262>
     608:	00947513          	andi	a0,s0,9
     60c:	157d                	addi	a0,a0,-1
     60e:	00153513          	seqz	a0,a0
     612:	04847413          	andi	s0,s0,72
     616:	47a1                	li	a5,8
     618:	def41ae3          	bne	s0,a5,40c <PD_Detect+0x5c>
     61c:	e2051be3          	bnez	a0,452 <PD_Detect+0xa2>
     620:	0094f793          	andi	a5,s1,9
     624:	4705                	li	a4,1
     626:	00e79363          	bne	a5,a4,62c <PD_Detect+0x27c>
     62a:	4509                	li	a0,2
     62c:	0404f493          	andi	s1,s1,64
     630:	dc048ee3          	beqz	s1,40c <PD_Detect+0x5c>
     634:	b5e9                	j	4fe <PD_Detect+0x14e>

00000636 <PD_Det_Proc>:
     636:	afbff2ef          	jal	t0,130 <__riscv_save_0>
     63a:	8f818493          	addi	s1,gp,-1800 # 20000310 <PD_Ctl>
     63e:	2c9e                	lhu	a5,24(s1)
     640:	1141                	addi	sp,sp,-16
     642:	8b89                	andi	a5,a5,2
     644:	c3ad                	beqz	a5,6a6 <PD_Det_Proc+0x70>
     646:	33ad                	jal	3b0 <PD_Detect>
     648:	c509                	beqz	a0,652 <PD_Det_Proc+0x1c>
     64a:	00048523          	sb	zero,10(s1)
     64e:	0141                	addi	sp,sp,16
     650:	b611                	j	154 <__riscv_restore_0>
     652:	24bc                	lbu	a5,10(s1)
     654:	4711                	li	a4,4
     656:	0785                	addi	a5,a5,1
     658:	0ff7f793          	andi	a5,a5,255
     65c:	00f76463          	bltu	a4,a5,664 <PD_Det_Proc+0x2e>
     660:	a4bc                	sb	a5,10(s1)
     662:	b7f5                	j	64e <PD_Det_Proc+0x18>
     664:	2c9e                	lhu	a5,24(s1)
     666:	00048523          	sb	zero,10(s1)
     66a:	ffd7f713          	andi	a4,a5,-3
     66e:	ac9a                	sh	a4,24(s1)
     670:	8b91                	andi	a5,a5,4
     672:	fff1                	bnez	a5,64e <PD_Det_Proc+0x18>
     674:	4405                	li	s0,1
     676:	c080                	sw	s0,0(s1)
     678:	4a6020ef          	jal	ra,2b1e <my_spi_disconnect>
     67c:	4501                	li	a0,0
     67e:	659010ef          	jal	ra,24d6 <my_VBus_Countrol>
     682:	84019523          	sh	zero,-1974(gp) # 20000262 <connect_time>
     686:	85818793          	addi	a5,gp,-1960 # 20000270 <switch_state_pd_flag>
     68a:	2398                	lbu	a4,0(a5)
     68c:	fc8711e3          	bne	a4,s0,64e <PD_Det_Proc+0x18>
     690:	00078023          	sb	zero,0(a5) # 40027000 <_eusrstack+0x20022000>
     694:	8571c783          	lbu	a5,-1961(gp) # 2000026f <switch_state_pd>
     698:	c781                	beqz	a5,6a0 <PD_Det_Proc+0x6a>
     69a:	57d010ef          	jal	ra,2416 <set_PD_STATUS_SRC>
     69e:	bf45                	j	64e <PD_Det_Proc+0x18>
     6a0:	58d010ef          	jal	ra,242c <set_PD_STATUS_SNK>
     6a4:	b76d                	j	64e <PD_Det_Proc+0x18>
     6a6:	3329                	jal	3b0 <PD_Detect>
     6a8:	8f818413          	addi	s0,gp,-1800 # 20000310 <PD_Ctl>
     6ac:	85aa                	mv	a1,a0
     6ae:	c909                	beqz	a0,6c0 <PD_Det_Proc+0x8a>
     6b0:	243c                	lbu	a5,10(s0)
     6b2:	4711                	li	a4,4
     6b4:	0785                	addi	a5,a5,1
     6b6:	0ff7f793          	andi	a5,a5,255
     6ba:	00f76563          	bltu	a4,a5,6c4 <PD_Det_Proc+0x8e>
     6be:	85be                	mv	a1,a5
     6c0:	a42c                	sb	a1,10(s0)
     6c2:	b771                	j	64e <PD_Det_Proc+0x18>
     6c4:	2c1e                	lhu	a5,24(s0)
     6c6:	00040523          	sb	zero,10(s0) # 4002700a <_eusrstack+0x2002200a>
     6ca:	0027e793          	ori	a5,a5,2
     6ce:	ac1e                	sh	a5,24(s0)
     6d0:	8b91                	andi	a5,a5,4
     6d2:	ffb5                	bnez	a5,64e <PD_Det_Proc+0x18>
     6d4:	c62a                	sw	a0,12(sp)
     6d6:	4fd010ef          	jal	ra,23d2 <get_PD_Status>
     6da:	45b2                	lw	a1,12(sp)
     6dc:	ed39                	bnez	a0,73a <PD_Det_Proc+0x104>
     6de:	40027737          	lui	a4,0x40027
     6e2:	275e                	lhu	a5,12(a4)
     6e4:	8b89                	andi	a5,a5,2
     6e6:	e781                	bnez	a5,6ee <PD_Det_Proc+0xb8>
     6e8:	277e                	lhu	a5,14(a4)
     6ea:	8b89                	andi	a5,a5,2
     6ec:	cf8d                	beqz	a5,726 <PD_Det_Proc+0xf0>
     6ee:	4785                	li	a5,1
     6f0:	84018713          	addi	a4,gp,-1984 # 20000258 <_edata>
     6f4:	400276b7          	lui	a3,0x40027
     6f8:	02f59a63          	bne	a1,a5,72c <PD_Det_Proc+0xf6>
     6fc:	229e                	lhu	a5,0(a3)
     6fe:	07c2                	slli	a5,a5,0x10
     700:	83c1                	srli	a5,a5,0x10
     702:	9bed                	andi	a5,a5,-5
     704:	07c2                	slli	a5,a5,0x10
     706:	83c1                	srli	a5,a5,0x10
     708:	a29e                	sh	a5,0(a3)
     70a:	a30c                	sb	a1,0(a4)
     70c:	4789                	li	a5,2
     70e:	c62e                	sw	a1,12(sp)
     710:	c01c                	sw	a5,0(s0)
     712:	4c1010ef          	jal	ra,23d2 <get_PD_Status>
     716:	45b2                	lw	a1,12(sp)
     718:	862a                	mv	a2,a0
     71a:	00005537          	lui	a0,0x5
     71e:	69450513          	addi	a0,a0,1684 # 5694 <_read+0x11c>
     722:	291030ef          	jal	ra,41b2 <iprintf>
     726:	00041723          	sh	zero,14(s0)
     72a:	b715                	j	64e <PD_Det_Proc+0x18>
     72c:	229e                	lhu	a5,0(a3)
     72e:	0047e793          	ori	a5,a5,4
     732:	a29e                	sh	a5,0(a3)
     734:	4789                	li	a5,2
     736:	a31c                	sb	a5,0(a4)
     738:	bfd1                	j	70c <PD_Det_Proc+0xd6>
     73a:	4785                	li	a5,1
     73c:	40027737          	lui	a4,0x40027
     740:	02f59a63          	bne	a1,a5,774 <PD_Det_Proc+0x13e>
     744:	231e                	lhu	a5,0(a4)
     746:	07c2                	slli	a5,a5,0x10
     748:	83c1                	srli	a5,a5,0x10
     74a:	9bed                	andi	a5,a5,-5
     74c:	07c2                	slli	a5,a5,0x10
     74e:	83c1                	srli	a5,a5,0x10
     750:	a31e                	sh	a5,0(a4)
     752:	40027737          	lui	a4,0x40027
     756:	275e                	lhu	a5,12(a4)
     758:	8b89                	andi	a5,a5,2
     75a:	e781                	bnez	a5,762 <PD_Det_Proc+0x12c>
     75c:	277e                	lhu	a5,14(a4)
     75e:	8b89                	andi	a5,a5,2
     760:	cf91                	beqz	a5,77c <PD_Det_Proc+0x146>
     762:	00005537          	lui	a0,0x5
     766:	4789                	li	a5,2
     768:	6ac50513          	addi	a0,a0,1708 # 56ac <_read+0x134>
     76c:	c01c                	sw	a5,0(s0)
     76e:	245030ef          	jal	ra,41b2 <iprintf>
     772:	bf55                	j	726 <PD_Det_Proc+0xf0>
     774:	231e                	lhu	a5,0(a4)
     776:	0047e793          	ori	a5,a5,4
     77a:	bfd9                	j	750 <PD_Det_Proc+0x11a>
     77c:	00005537          	lui	a0,0x5
     780:	47ad                	li	a5,11
     782:	6c050513          	addi	a0,a0,1728 # 56c0 <_read+0x148>
     786:	c01c                	sw	a5,0(s0)
     788:	22b030ef          	jal	ra,41b2 <iprintf>
     78c:	84a18793          	addi	a5,gp,-1974 # 20000262 <connect_time>
     790:	2396                	lhu	a3,0(a5)
     792:	6705                	lui	a4,0x1
     794:	bb770713          	addi	a4,a4,-1097 # bb7 <PDO_Request+0xa7>
     798:	f8d777e3          	bgeu	a4,a3,726 <PD_Det_Proc+0xf0>
     79c:	6705                	lui	a4,0x1
     79e:	bae70713          	addi	a4,a4,-1106 # bae <PDO_Request+0x9e>
     7a2:	a39a                	sh	a4,0(a5)
     7a4:	b749                	j	726 <PD_Det_Proc+0xf0>

000007a6 <PD_Phy_SendPack>:
     7a6:	400277b7          	lui	a5,0x40027
     7aa:	239a                	lhu	a4,0(a5)
     7ac:	8b11                	andi	a4,a4,4
     7ae:	cf51                	beqz	a4,84a <PD_Phy_SendPack+0xa4>
     7b0:	27fa                	lhu	a4,14(a5)
     7b2:	01076713          	ori	a4,a4,16
     7b6:	a7fa                	sh	a4,14(a5)
     7b8:	400277b7          	lui	a5,0x40027
     7bc:	04f00713          	li	a4,79
     7c0:	05c2                	slli	a1,a1,0x10
     7c2:	a3ba                	sh	a4,2(a5)
     7c4:	81c1                	srli	a1,a1,0x10
     7c6:	ab8e                	sh	a1,16(a5)
     7c8:	0642                	slli	a2,a2,0x10
     7ca:	b3d4                	sb	a3,5(a5)
     7cc:	8241                	srli	a2,a2,0x10
     7ce:	a3f2                	sh	a2,6(a5)
     7d0:	23d8                	lbu	a4,4(a5)
     7d2:	00176713          	ori	a4,a4,1
     7d6:	a3d8                	sb	a4,4(a5)
     7d8:	3798                	lbu	a4,9(a5)
     7da:	000784a3          	sb	zero,9(a5) # 40027009 <_eusrstack+0x20022009>
     7de:	23d8                	lbu	a4,4(a5)
     7e0:	00276713          	ori	a4,a4,2
     7e4:	a3d8                	sb	a4,4(a5)
     7e6:	c12d                	beqz	a0,848 <PD_Phy_SendPack+0xa2>
     7e8:	3798                	lbu	a4,9(a5)
     7ea:	0762                	slli	a4,a4,0x18
     7ec:	8761                	srai	a4,a4,0x18
     7ee:	fe075de3          	bgez	a4,7e8 <PD_Phy_SendPack+0x42>
     7f2:	3798                	lbu	a4,9(a5)
     7f4:	08076713          	ori	a4,a4,128
     7f8:	b798                	sb	a4,9(a5)
     7fa:	239a                	lhu	a4,0(a5)
     7fc:	8b11                	andi	a4,a4,4
     7fe:	cb39                	beqz	a4,854 <PD_Phy_SendPack+0xae>
     800:	27fa                	lhu	a4,14(a5)
     802:	0742                	slli	a4,a4,0x10
     804:	8341                	srli	a4,a4,0x10
     806:	9b3d                	andi	a4,a4,-17
     808:	0742                	slli	a4,a4,0x10
     80a:	8341                	srli	a4,a4,0x10
     80c:	a7fa                	sh	a4,14(a5)
     80e:	400277b7          	lui	a5,0x40027
     812:	239a                	lhu	a4,0(a5)
     814:	00276713          	ori	a4,a4,2
     818:	a39a                	sh	a4,0(a5)
     81a:	239a                	lhu	a4,0(a5)
     81c:	0742                	slli	a4,a4,0x10
     81e:	8341                	srli	a4,a4,0x10
     820:	9b75                	andi	a4,a4,-3
     822:	0742                	slli	a4,a4,0x10
     824:	8341                	srli	a4,a4,0x10
     826:	a39a                	sh	a4,0(a5)
     828:	23d8                	lbu	a4,4(a5)
     82a:	0fe77713          	andi	a4,a4,254
     82e:	a3d8                	sb	a4,4(a5)
     830:	91418713          	addi	a4,gp,-1772 # 2000032c <PD_Rx_Buf>
     834:	0742                	slli	a4,a4,0x10
     836:	8341                	srli	a4,a4,0x10
     838:	ab9a                	sh	a4,16(a5)
     83a:	07700713          	li	a4,119
     83e:	a3ba                	sh	a4,2(a5)
     840:	23d8                	lbu	a4,4(a5)
     842:	00276713          	ori	a4,a4,2
     846:	a3d8                	sb	a4,4(a5)
     848:	8082                	ret
     84a:	27da                	lhu	a4,12(a5)
     84c:	01076713          	ori	a4,a4,16
     850:	a7da                	sh	a4,12(a5)
     852:	b79d                	j	7b8 <PD_Phy_SendPack+0x12>
     854:	27da                	lhu	a4,12(a5)
     856:	0742                	slli	a4,a4,0x10
     858:	8341                	srli	a4,a4,0x10
     85a:	9b3d                	andi	a4,a4,-17
     85c:	0742                	slli	a4,a4,0x10
     85e:	8341                	srli	a4,a4,0x10
     860:	a7da                	sh	a4,12(a5)
     862:	b775                	j	80e <PD_Phy_SendPack+0x68>

00000864 <USBPD_IRQHandler>:
     864:	400277b7          	lui	a5,0x40027
     868:	3798                	lbu	a4,9(a5)
     86a:	1141                	addi	sp,sp,-16
     86c:	c622                	sw	s0,12(sp)
     86e:	02077713          	andi	a4,a4,32
     872:	cb2d                	beqz	a4,8e4 <USBPD_IRQHandler+0x80>
     874:	3798                	lbu	a4,9(a5)
     876:	4685                	li	a3,1
     878:	02076713          	ori	a4,a4,32
     87c:	b798                	sb	a4,9(a5)
     87e:	3798                	lbu	a4,9(a5)
     880:	8b0d                	andi	a4,a4,3
     882:	06d71163          	bne	a4,a3,8e4 <USBPD_IRQHandler+0x80>
     886:	27b6                	lhu	a3,10(a5)
     888:	4615                	li	a2,5
     88a:	04d67d63          	bgeu	a2,a3,8e4 <USBPD_IRQHandler+0x80>
     88e:	27be                	lhu	a5,10(a5)
     890:	4699                	li	a3,6
     892:	91418413          	addi	s0,gp,-1772 # 2000032c <PD_Rx_Buf>
     896:	00f69663          	bne	a3,a5,8a2 <USBPD_IRQHandler+0x3e>
     89a:	201c                	lbu	a5,0(s0)
     89c:	8bfd                	andi	a5,a5,31
     89e:	04e78363          	beq	a5,a4,8e4 <USBPD_IRQHandler+0x80>
     8a2:	4579                	li	a0,30
     8a4:	728030ef          	jal	ra,3fcc <Delay_Us>
     8a8:	32b010ef          	jal	ra,23d2 <get_PD_Status>
     8ac:	04100793          	li	a5,65
     8b0:	c119                	beqz	a0,8b6 <USBPD_IRQHandler+0x52>
     8b2:	06100793          	li	a5,97
     8b6:	84418693          	addi	a3,gp,-1980 # 2000025c <PD_Ack_Buf>
     8ba:	9101a703          	lw	a4,-1776(gp) # 20000328 <PD_Ctl+0x18>
     8be:	a29c                	sb	a5,0(a3)
     8c0:	301c                	lbu	a5,1(s0)
     8c2:	8315                	srli	a4,a4,0x5
     8c4:	8b05                	andi	a4,a4,1
     8c6:	8bb9                	andi	a5,a5,14
     8c8:	8fd9                	or	a5,a5,a4
     8ca:	b29c                	sb	a5,1(a3)
     8cc:	40027737          	lui	a4,0x40027
     8d0:	231e                	lhu	a5,0(a4)
     8d2:	66a1                	lui	a3,0x8
     8d4:	4609                	li	a2,2
     8d6:	8fd5                	or	a5,a5,a3
     8d8:	a31e                	sh	a5,0(a4)
     8da:	4681                	li	a3,0
     8dc:	84418593          	addi	a1,gp,-1980 # 2000025c <PD_Ack_Buf>
     8e0:	4501                	li	a0,0
     8e2:	35d1                	jal	7a6 <PD_Phy_SendPack>
     8e4:	400277b7          	lui	a5,0x40027
     8e8:	3798                	lbu	a4,9(a5)
     8ea:	0762                	slli	a4,a4,0x18
     8ec:	8761                	srai	a4,a4,0x18
     8ee:	04075063          	bgez	a4,92e <USBPD_IRQHandler+0xca>
     8f2:	27da                	lhu	a4,12(a5)
     8f4:	000206b7          	lui	a3,0x20
     8f8:	0742                	slli	a4,a4,0x10
     8fa:	8341                	srli	a4,a4,0x10
     8fc:	9b3d                	andi	a4,a4,-17
     8fe:	0742                	slli	a4,a4,0x10
     900:	8341                	srli	a4,a4,0x10
     902:	a7da                	sh	a4,12(a5)
     904:	27fa                	lhu	a4,14(a5)
     906:	0742                	slli	a4,a4,0x10
     908:	8341                	srli	a4,a4,0x10
     90a:	9b3d                	andi	a4,a4,-17
     90c:	0742                	slli	a4,a4,0x10
     90e:	8341                	srli	a4,a4,0x10
     910:	a7fa                	sh	a4,14(a5)
     912:	e000e737          	lui	a4,0xe000e
     916:	18d72223          	sw	a3,388(a4) # e000e184 <_eusrstack+0xc0009184>
     91a:	8f818713          	addi	a4,gp,-1800 # 20000310 <PD_Ctl>
     91e:	2f16                	lhu	a3,24(a4)
     920:	0016e693          	ori	a3,a3,1
     924:	af16                	sh	a3,24(a4)
     926:	3798                	lbu	a4,9(a5)
     928:	08076713          	ori	a4,a4,128
     92c:	b798                	sb	a4,9(a5)
     92e:	400277b7          	lui	a5,0x40027
     932:	3798                	lbu	a4,9(a5)
     934:	04077713          	andi	a4,a4,64
     938:	cf01                	beqz	a4,950 <USBPD_IRQHandler+0xec>
     93a:	3798                	lbu	a4,9(a5)
     93c:	04076713          	ori	a4,a4,64
     940:	b798                	sb	a4,9(a5)
     942:	32d9                	jal	308 <PD_PHY_Reset>
     944:	00005537          	lui	a0,0x5
     948:	7c050513          	addi	a0,a0,1984 # 57c0 <_read+0x248>
     94c:	17b030ef          	jal	ra,42c6 <puts>
     950:	4432                	lw	s0,12(sp)
     952:	0141                	addi	sp,sp,16
     954:	30200073          	mret

00000958 <PD_Send_Handle.part.3>:
     958:	fb0ff2ef          	jal	t0,108 <__riscv_save_10>
     95c:	93818713          	addi	a4,gp,-1736 # 20000350 <PD_Tx_Buf>
     960:	3314                	lbu	a3,1(a4)
     962:	0025d793          	srli	a5,a1,0x2
     966:	0792                	slli	a5,a5,0x4
     968:	8fd5                	or	a5,a5,a3
     96a:	b31c                	sb	a5,1(a4)
     96c:	4781                	li	a5,0
     96e:	0ff7f693          	andi	a3,a5,255
     972:	0705                	addi	a4,a4,1
     974:	08d59063          	bne	a1,a3,9f4 <PD_Send_Handle.part.3+0x9c>
     978:	0589                	addi	a1,a1,2
     97a:	4911                	li	s2,4
     97c:	0ff5f493          	andi	s1,a1,255
     980:	40027a37          	lui	s4,0x40027
     984:	4a99                	li	s5,6
     986:	197d                	addi	s2,s2,-1
     988:	0ff97913          	andi	s2,s2,255
     98c:	04090e63          	beqz	s2,9e8 <PD_Send_Handle.part.3+0x90>
     990:	e000e7b7          	lui	a5,0xe000e
     994:	00020737          	lui	a4,0x20
     998:	18e7a223          	sw	a4,388(a5) # e000e184 <_eusrstack+0xc0009184>
     99c:	4681                	li	a3,0
     99e:	8626                	mv	a2,s1
     9a0:	93818593          	addi	a1,gp,-1736 # 20000350 <PD_Tx_Buf>
     9a4:	4505                	li	a0,1
     9a6:	3501                	jal	7a6 <PD_Phy_SendPack>
     9a8:	0fa00413          	li	s0,250
     9ac:	4b85                	li	s7,1
     9ae:	147d                	addi	s0,s0,-1
     9b0:	0ff47413          	andi	s0,s0,255
     9b4:	d869                	beqz	s0,986 <PD_Send_Handle.part.3+0x2e>
     9b6:	009a4783          	lbu	a5,9(s4) # 40027009 <_eusrstack+0x20022009>
     9ba:	0207f793          	andi	a5,a5,32
     9be:	c3a9                	beqz	a5,a00 <PD_Send_Handle.part.3+0xa8>
     9c0:	009a4783          	lbu	a5,9(s4)
     9c4:	0207e793          	ori	a5,a5,32
     9c8:	00fa04a3          	sb	a5,9(s4)
     9cc:	00aa5783          	lhu	a5,10(s4)
     9d0:	02fa9863          	bne	s5,a5,a00 <PD_Send_Handle.part.3+0xa8>
     9d4:	9141c783          	lbu	a5,-1772(gp) # 2000032c <PD_Rx_Buf>
     9d8:	8bfd                	andi	a5,a5,31
     9da:	03779363          	bne	a5,s7,a00 <PD_Send_Handle.part.3+0xa8>
     9de:	8f818793          	addi	a5,gp,-1800 # 20000310 <PD_Ctl>
     9e2:	2798                	lbu	a4,8(a5)
     9e4:	0709                	addi	a4,a4,2
     9e6:	a798                	sb	a4,8(a5)
     9e8:	897ff0ef          	jal	ra,27e <PD_Rx_Mode>
     9ec:	00193513          	seqz	a0,s2
     9f0:	f50ff06f          	j	140 <__riscv_restore_10>
     9f4:	00f506b3          	add	a3,a0,a5
     9f8:	2294                	lbu	a3,0(a3)
     9fa:	0785                	addi	a5,a5,1
     9fc:	b314                	sb	a3,1(a4)
     9fe:	bf85                	j	96e <PD_Send_Handle.part.3+0x16>
     a00:	450d                	li	a0,3
     a02:	5ca030ef          	jal	ra,3fcc <Delay_Us>
     a06:	b765                	j	9ae <PD_Send_Handle.part.3+0x56>

00000a08 <PD_Load_Header>:
     a08:	8f818693          	addi	a3,gp,-1800 # 20000310 <PD_Ctl>
     a0c:	2e96                	lhu	a3,24(a3)
     a0e:	92b18c23          	sb	a1,-1736(gp) # 20000350 <PD_Tx_Buf>
     a12:	0086f613          	andi	a2,a3,8
     a16:	93818793          	addi	a5,gp,-1736 # 20000350 <PD_Tx_Buf>
     a1a:	8f818713          	addi	a4,gp,-1800 # 20000310 <PD_Ctl>
     a1e:	c601                	beqz	a2,a26 <PD_Load_Header+0x1e>
     a20:	0205e593          	ori	a1,a1,32
     a24:	a38c                	sb	a1,0(a5)
     a26:	0007c803          	lbu	a6,0(a5)
     a2a:	0406f613          	andi	a2,a3,64
     a2e:	04086593          	ori	a1,a6,64
     a32:	c219                	beqz	a2,a38 <PD_Load_Header+0x30>
     a34:	08086593          	ori	a1,a6,128
     a38:	2718                	lbu	a4,8(a4)
     a3a:	a38c                	sb	a1,0(a5)
     a3c:	8ac1                	andi	a3,a3,16
     a3e:	8b39                	andi	a4,a4,14
     a40:	ea81                	bnez	a3,a50 <PD_Load_Header+0x48>
     a42:	b398                	sb	a4,1(a5)
     a44:	c509                	beqz	a0,a4e <PD_Load_Header+0x46>
     a46:	3398                	lbu	a4,1(a5)
     a48:	f8076713          	ori	a4,a4,-128
     a4c:	b398                	sb	a4,1(a5)
     a4e:	8082                	ret
     a50:	00176713          	ori	a4,a4,1
     a54:	b7fd                	j	a42 <PD_Load_Header+0x3a>

00000a56 <PD_Send_Handle>:
     a56:	0035f793          	andi	a5,a1,3
     a5a:	eb91                	bnez	a5,a6e <PD_Send_Handle+0x18>
     a5c:	46f1                	li	a3,28
     a5e:	4785                	li	a5,1
     a60:	00b6e863          	bltu	a3,a1,a70 <PD_Send_Handle+0x1a>
     a64:	eccff2ef          	jal	t0,130 <__riscv_save_0>
     a68:	3dc5                	jal	958 <PD_Send_Handle.part.3>
     a6a:	eeaff06f          	j	154 <__riscv_restore_0>
     a6e:	4785                	li	a5,1
     a70:	853e                	mv	a0,a5
     a72:	8082                	ret

00000a74 <PD_Save_Adapter_SrcCap>:
     a74:	ebcff2ef          	jal	t0,130 <__riscv_save_0>
     a78:	91418793          	addi	a5,gp,-1772 # 2000032c <PD_Rx_Buf>
     a7c:	339c                	lbu	a5,1(a5)
     a7e:	91418893          	addi	a7,gp,-1772 # 2000032c <PD_Rx_Buf>
     a82:	4701                	li	a4,0
     a84:	0047d813          	srli	a6,a5,0x4
     a88:	00787813          	andi	a6,a6,7
     a8c:	91418593          	addi	a1,gp,-1772 # 2000032c <PD_Rx_Buf>
     a90:	0c000e13          	li	t3,192
     a94:	0ff77693          	andi	a3,a4,255
     a98:	853a                	mv	a0,a4
     a9a:	00271613          	slli	a2,a4,0x2
     a9e:	0106fa63          	bgeu	a3,a6,ab2 <PD_Save_Adapter_SrcCap+0x3e>
     aa2:	0058c303          	lbu	t1,5(a7)
     aa6:	0705                	addi	a4,a4,1
     aa8:	0891                	addi	a7,a7,4
     aaa:	0c037313          	andi	t1,t1,192
     aae:	ffc313e3          	bne	t1,t3,a94 <PD_Save_Adapter_SrcCap+0x20>
     ab2:	84d180a3          	sb	a3,-1983(gp) # 20000259 <PDO_Len>
     ab6:	03e00713          	li	a4,62
     aba:	b1d8                	sb	a4,5(a1)
     abc:	f8f7f793          	andi	a5,a5,-113
     ac0:	00451713          	slli	a4,a0,0x4
     ac4:	8fd9                	or	a5,a5,a4
     ac6:	8d818513          	addi	a0,gp,-1832 # 200002f0 <Adapter_SrcCap>
     aca:	b19c                	sb	a5,1(a1)
     acc:	a114                	sb	a3,0(a0)
     ace:	0589                	addi	a1,a1,2
     ad0:	0505                	addi	a0,a0,1
     ad2:	62e030ef          	jal	ra,4100 <memcpy>
     ad6:	e7eff06f          	j	154 <__riscv_restore_0>

00000ada <PD_PDO_Analyse>:
     ada:	157d                	addi	a0,a0,-1
     adc:	050a                	slli	a0,a0,0x2
     ade:	95aa                	add	a1,a1,a0
     ae0:	319c                	lbu	a5,1(a1)
     ae2:	21b8                	lbu	a4,2(a1)
     ae4:	07a2                	slli	a5,a5,0x8
     ae6:	0742                	slli	a4,a4,0x10
     ae8:	97ba                	add	a5,a5,a4
     aea:	2198                	lbu	a4,0(a1)
     aec:	97ba                	add	a5,a5,a4
     aee:	c619                	beqz	a2,afc <PD_PDO_Analyse+0x22>
     af0:	3ff7f713          	andi	a4,a5,1023
     af4:	45a9                	li	a1,10
     af6:	02b70733          	mul	a4,a4,a1
     afa:	a21a                	sh	a4,0(a2)
     afc:	ca89                	beqz	a3,b0e <PD_PDO_Analyse+0x34>
     afe:	83a9                	srli	a5,a5,0xa
     b00:	3ff7f793          	andi	a5,a5,1023
     b04:	03200713          	li	a4,50
     b08:	02e787b3          	mul	a5,a5,a4
     b0c:	a29e                	sh	a5,0(a3)
     b0e:	8082                	ret

00000b10 <PDO_Request>:
     b10:	e20ff2ef          	jal	t0,130 <__riscv_save_0>
     b14:	8411c783          	lbu	a5,-1983(gp) # 20000259 <PDO_Len>
     b18:	1141                	addi	sp,sp,-16
     b1a:	00a7e463          	bltu	a5,a0,b22 <PDO_Request+0x12>
     b1e:	84aa                	mv	s1,a0
     b20:	ed01                	bnez	a0,b38 <PDO_Request+0x28>
     b22:	00005437          	lui	s0,0x5
     b26:	65440513          	addi	a0,s0,1620 # 5654 <_read+0xdc>
     b2a:	79c030ef          	jal	ra,42c6 <puts>
     b2e:	1f400513          	li	a0,500
     b32:	4d0030ef          	jal	ra,4002 <Delay_Ms>
     b36:	bfc5                	j	b26 <PDO_Request+0x16>
     b38:	91418413          	addi	s0,gp,-1772 # 2000032c <PD_Rx_Buf>
     b3c:	00251793          	slli	a5,a0,0x2
     b40:	17f5                	addi	a5,a5,-3
     b42:	00240913          	addi	s2,s0,2
     b46:	8d818593          	addi	a1,gp,-1832 # 200002f0 <Adapter_SrcCap>
     b4a:	95be                	add	a1,a1,a5
     b4c:	4611                	li	a2,4
     b4e:	854a                	mv	a0,s2
     b50:	5b0030ef          	jal	ra,4100 <memcpy>
     b54:	00e10693          	addi	a3,sp,14
     b58:	0070                	addi	a2,sp,12
     b5a:	85ca                	mv	a1,s2
     b5c:	4505                	li	a0,1
     b5e:	3fb5                	jal	ada <PD_PDO_Analyse>
     b60:	8730                	lhu	a2,14(sp)
     b62:	862c                	lhu	a1,12(sp)
     b64:	00005537          	lui	a0,0x5
     b68:	66850513          	addi	a0,a0,1640 # 5668 <_read+0xf0>
     b6c:	646030ef          	jal	ra,41b2 <iprintf>
     b70:	4589                	li	a1,2
     b72:	4501                	li	a0,0
     b74:	3d51                	jal	a08 <PD_Load_Header>
     b76:	2038                	lbu	a4,2(s0)
     b78:	303c                	lbu	a5,3(s0)
     b7a:	0492                	slli	s1,s1,0x4
     b7c:	00271693          	slli	a3,a4,0x2
     b80:	8b8d                	andi	a5,a5,3
     b82:	8fd5                	or	a5,a5,a3
     b84:	0ff7f793          	andi	a5,a5,255
     b88:	b03c                	sb	a5,3(s0)
     b8a:	078a                	slli	a5,a5,0x2
     b8c:	8319                	srli	a4,a4,0x6
     b8e:	8bb1                	andi	a5,a5,12
     b90:	8fd9                	or	a5,a5,a4
     b92:	0034e493          	ori	s1,s1,3
     b96:	4591                	li	a1,4
     b98:	854a                	mv	a0,s2
     b9a:	b044                	sb	s1,5(s0)
     b9c:	a05c                	sb	a5,4(s0)
     b9e:	3b6d                	jal	958 <PD_Send_Handle.part.3>
     ba0:	4719                	li	a4,6
     ba2:	c111                	beqz	a0,ba6 <PDO_Request+0x96>
     ba4:	477d                	li	a4,31
     ba6:	8f818793          	addi	a5,gp,-1800 # 20000310 <PD_Ctl>
     baa:	c398                	sw	a4,0(a5)
     bac:	2f9a                	lhu	a4,24(a5)
     bae:	6685                	lui	a3,0x1
     bb0:	00079723          	sh	zero,14(a5)
     bb4:	8f55                	or	a4,a4,a3
     bb6:	af9a                	sh	a4,24(a5)
     bb8:	0141                	addi	sp,sp,16
     bba:	d9aff06f          	j	154 <__riscv_restore_0>

00000bbe <PD_Main_Proc>:
     bbe:	d58ff2ef          	jal	t0,116 <__riscv_save_4>
     bc2:	8f818713          	addi	a4,gp,-1800 # 20000310 <PD_Ctl>
     bc6:	2b36                	lhu	a3,18(a4)
     bc8:	8471c783          	lbu	a5,-1977(gp) # 2000025f <Tmr_Ms_Dlt>
     bcc:	1141                	addi	sp,sp,-16
     bce:	8f818413          	addi	s0,gp,-1800 # 20000310 <PD_Ctl>
     bd2:	96be                	add	a3,a3,a5
     bd4:	ab36                	sh	a3,18(a4)
     bd6:	4318                	lw	a4,0(a4)
     bd8:	02000693          	li	a3,32
     bdc:	02e6e363          	bltu	a3,a4,c02 <PD_Main_Proc+0x44>
     be0:	6695                	lui	a3,0x5
     be2:	070a                	slli	a4,a4,0x2
     be4:	58868693          	addi	a3,a3,1416 # 5588 <_read+0x10>
     be8:	9736                	add	a4,a4,a3
     bea:	4318                	lw	a4,0(a4)
     bec:	8702                	jr	a4
     bee:	84a18713          	addi	a4,gp,-1974 # 20000262 <connect_time>
     bf2:	2316                	lhu	a3,0(a4)
     bf4:	6605                	lui	a2,0x1
     bf6:	bb760613          	addi	a2,a2,-1097 # bb7 <PDO_Request+0xa7>
     bfa:	00d66463          	bltu	a2,a3,c02 <PD_Main_Proc+0x44>
     bfe:	97b6                	add	a5,a5,a3
     c00:	a31e                	sh	a5,0(a4)
     c02:	2c1e                	lhu	a5,24(s0)
     c04:	8b85                	andi	a5,a5,1
     c06:	26078163          	beqz	a5,e68 <PD_Main_Proc+0x2aa>
     c0a:	9141c903          	lbu	s2,-1772(gp) # 2000032c <PD_Rx_Buf>
     c0e:	00040b23          	sb	zero,22(s0)
     c12:	4745                	li	a4,17
     c14:	01f97913          	andi	s2,s2,31
     c18:	fff90793          	addi	a5,s2,-1
     c1c:	0ff7f793          	andi	a5,a5,255
     c20:	91418493          	addi	s1,gp,-1772 # 2000032c <PD_Rx_Buf>
     c24:	44f76b63          	bltu	a4,a5,107a <__stack_size+0x7a>
     c28:	6715                	lui	a4,0x5
     c2a:	078a                	slli	a5,a5,0x2
     c2c:	60c70713          	addi	a4,a4,1548 # 560c <_read+0x94>
     c30:	97ba                	add	a5,a5,a4
     c32:	439c                	lw	a5,0(a5)
     c34:	8782                	jr	a5
     c36:	00005537          	lui	a0,0x5
     c3a:	6d450513          	addi	a0,a0,1748 # 56d4 <_read+0x15c>
     c3e:	84018ca3          	sb	zero,-1959(gp) # 20000271 <valve_connect>
     c42:	684030ef          	jal	ra,42c6 <puts>
     c46:	ec2ff0ef          	jal	ra,308 <PD_PHY_Reset>
     c4a:	bf65                	j	c02 <PD_Main_Proc+0x44>
     c4c:	247a                	lhu	a4,14(s0)
     c4e:	97ba                	add	a5,a5,a4
     c50:	07c2                	slli	a5,a5,0x10
     c52:	83c1                	srli	a5,a5,0x10
     c54:	a47e                	sh	a5,14(s0)
     c56:	7cf00713          	li	a4,1999
     c5a:	faf774e3          	bgeu	a4,a5,c02 <PD_Main_Proc+0x44>
     c5e:	385c                	lbu	a5,21(s0)
     c60:	4715                	li	a4,5
     c62:	0785                	addi	a5,a5,1
     c64:	0ff7f793          	andi	a5,a5,255
     c68:	b85c                	sb	a5,21(s0)
     c6a:	fcf77ee3          	bgeu	a4,a5,c46 <PD_Main_Proc+0x88>
     c6e:	00040aa3          	sb	zero,21(s0)
     c72:	00042023          	sw	zero,0(s0)
     c76:	b771                	j	c02 <PD_Main_Proc+0x44>
     c78:	247a                	lhu	a4,14(s0)
     c7a:	97ba                	add	a5,a5,a4
     c7c:	07c2                	slli	a5,a5,0x10
     c7e:	83c1                	srli	a5,a5,0x10
     c80:	a47e                	sh	a5,14(s0)
     c82:	1f300713          	li	a4,499
     c86:	f6f77ee3          	bgeu	a4,a5,c02 <PD_Main_Proc+0x44>
     c8a:	2c1e                	lhu	a5,24(s0)
     c8c:	9bed                	andi	a5,a5,-5
     c8e:	ac1e                	sh	a5,24(s0)
     c90:	47fd                	li	a5,31
     c92:	c01c                	sw	a5,0(s0)
     c94:	a819                	j	caa <PD_Main_Proc+0xec>
     c96:	45b5                	li	a1,13
     c98:	4501                	li	a0,0
     c9a:	33bd                	jal	a08 <PD_Load_Header>
     c9c:	4581                	li	a1,0
     c9e:	4501                	li	a0,0
     ca0:	3965                	jal	958 <PD_Send_Handle.part.3>
     ca2:	00a03533          	snez	a0,a0
     ca6:	0516                	slli	a0,a0,0x5
     ca8:	c008                	sw	a0,0(s0)
     caa:	00041723          	sh	zero,14(s0)
     cae:	bf91                	j	c02 <PD_Main_Proc+0x44>
     cb0:	2c1e                	lhu	a5,24(s0)
     cb2:	0a900693          	li	a3,169
     cb6:	4601                	li	a2,0
     cb8:	0047e793          	ori	a5,a5,4
     cbc:	4581                	li	a1,0
     cbe:	4505                	li	a0,1
     cc0:	ac1e                	sh	a5,24(s0)
     cc2:	34d5                	jal	7a6 <PD_Phy_SendPack>
     cc4:	dbaff0ef          	jal	ra,27e <PD_Rx_Mode>
     cc8:	00042023          	sw	zero,0(s0)
     ccc:	bff9                	j	caa <PD_Main_Proc+0xec>
     cce:	84a18613          	addi	a2,gp,-1974 # 20000262 <connect_time>
     cd2:	221a                	lhu	a4,0(a2)
     cd4:	6685                	lui	a3,0x1
     cd6:	bb768693          	addi	a3,a3,-1097 # bb7 <PDO_Request+0xa7>
     cda:	00e6ec63          	bltu	a3,a4,cf2 <PD_Main_Proc+0x134>
     cde:	97ba                	add	a5,a5,a4
     ce0:	07c2                	slli	a5,a5,0x10
     ce2:	83c1                	srli	a5,a5,0x10
     ce4:	a21e                	sh	a5,0(a2)
     ce6:	4505                	li	a0,1
     ce8:	f0f6fde3          	bgeu	a3,a5,c02 <PD_Main_Proc+0x44>
     cec:	7ea010ef          	jal	ra,24d6 <my_VBus_Countrol>
     cf0:	bf09                	j	c02 <PD_Main_Proc+0x44>
     cf2:	247a                	lhu	a4,14(s0)
     cf4:	97ba                	add	a5,a5,a4
     cf6:	07c2                	slli	a5,a5,0x10
     cf8:	83c1                	srli	a5,a5,0x10
     cfa:	a47e                	sh	a5,14(s0)
     cfc:	09f00713          	li	a4,159
     d00:	f0f771e3          	bgeu	a4,a5,c02 <PD_Main_Proc+0x44>
     d04:	2c1e                	lhu	a5,24(s0)
     d06:	00041723          	sh	zero,14(s0)
     d0a:	9bed                	andi	a5,a5,-5
     d0c:	ac1e                	sh	a5,24(s0)
     d0e:	47b1                	li	a5,12
     d10:	c01c                	sw	a5,0(s0)
     d12:	bdc5                	j	c02 <PD_Main_Proc+0x44>
     d14:	247a                	lhu	a4,14(s0)
     d16:	97ba                	add	a5,a5,a4
     d18:	07c2                	slli	a5,a5,0x10
     d1a:	83c1                	srli	a5,a5,0x10
     d1c:	a47e                	sh	a5,14(s0)
     d1e:	09f00713          	li	a4,159
     d22:	eef770e3          	bgeu	a4,a5,c02 <PD_Main_Proc+0x44>
     d26:	4585                	li	a1,1
     d28:	4501                	li	a0,0
     d2a:	39f9                	jal	a08 <PD_Load_Header>
     d2c:	8081c703          	lbu	a4,-2040(gp) # 20000220 <SrcCap_size>
     d30:	47b1                	li	a5,12
     d32:	20000537          	lui	a0,0x20000
     d36:	45a1                	li	a1,8
     d38:	00f70363          	beq	a4,a5,d3e <PD_Main_Proc+0x180>
     d3c:	4591                	li	a1,4
     d3e:	01c50513          	addi	a0,a0,28 # 2000001c <SrcCap_Tab>
     d42:	3919                	jal	958 <PD_Send_Handle.part.3>
     d44:	f13d                	bnez	a0,caa <PD_Main_Proc+0xec>
     d46:	00005537          	lui	a0,0x5
     d4a:	47b5                	li	a5,13
     d4c:	6e050513          	addi	a0,a0,1760 # 56e0 <_read+0x168>
     d50:	c01c                	sw	a5,0(s0)
     d52:	574030ef          	jal	ra,42c6 <puts>
     d56:	bf91                	j	caa <PD_Main_Proc+0xec>
     d58:	247a                	lhu	a4,14(s0)
     d5a:	97ba                	add	a5,a5,a4
     d5c:	07c2                	slli	a5,a5,0x10
     d5e:	83c1                	srli	a5,a5,0x10
     d60:	a47e                	sh	a5,14(s0)
     d62:	4775                	li	a4,29
     d64:	e8f77fe3          	bgeu	a4,a5,c02 <PD_Main_Proc+0x44>
     d68:	02000793          	li	a5,32
     d6c:	b755                	j	d10 <PD_Main_Proc+0x152>
     d6e:	247a                	lhu	a4,14(s0)
     d70:	97ba                	add	a5,a5,a4
     d72:	07c2                	slli	a5,a5,0x10
     d74:	83c1                	srli	a5,a5,0x10
     d76:	a47e                	sh	a5,14(s0)
     d78:	4709                	li	a4,2
     d7a:	e8f774e3          	bgeu	a4,a5,c02 <PD_Main_Proc+0x44>
     d7e:	458d                	li	a1,3
     d80:	4501                	li	a0,0
     d82:	3159                	jal	a08 <PD_Load_Header>
     d84:	4581                	li	a1,0
     d86:	4501                	li	a0,0
     d88:	3ec1                	jal	958 <PD_Send_Handle.part.3>
     d8a:	f00513e3          	bnez	a0,c90 <PD_Main_Proc+0xd2>
     d8e:	00005537          	lui	a0,0x5
     d92:	70050513          	addi	a0,a0,1792 # 5700 <_read+0x188>
     d96:	530030ef          	jal	ra,42c6 <puts>
     d9a:	47c9                	li	a5,18
     d9c:	c01c                	sw	a5,0(s0)
     d9e:	00041723          	sh	zero,14(s0)
     da2:	8481c503          	lbu	a0,-1976(gp) # 20000260 <Vbus_Select>
     da6:	b799                	j	cec <PD_Main_Proc+0x12e>
     da8:	247a                	lhu	a4,14(s0)
     daa:	97ba                	add	a5,a5,a4
     dac:	a47e                	sh	a5,14(s0)
     dae:	254010ef          	jal	ra,2002 <get_SC8726_Vbus_Out_Status>
     db2:	e915                	bnez	a0,de6 <PD_Main_Proc+0x228>
     db4:	4599                	li	a1,6
     db6:	3989                	jal	a08 <PD_Load_Header>
     db8:	4581                	li	a1,0
     dba:	4501                	li	a0,0
     dbc:	3e71                	jal	958 <PD_Send_Handle.part.3>
     dbe:	ec0519e3          	bnez	a0,c90 <PD_Main_Proc+0xd2>
     dc2:	8561c503          	lbu	a0,-1962(gp) # 2000026e <src_vbus_type>
     dc6:	8541d583          	lhu	a1,-1964(gp) # 2000026c <src_vbus_current>
     dca:	8591c783          	lbu	a5,-1959(gp) # 20000271 <valve_connect>
     dce:	4605                	li	a2,1
     dd0:	e391                	bnez	a5,dd4 <PD_Main_Proc+0x216>
     dd2:	4601                	li	a2,0
     dd4:	549010ef          	jal	ra,2b1c <my_spi_SRC>
     dd8:	00005537          	lui	a0,0x5
     ddc:	70850513          	addi	a0,a0,1800 # 5708 <_read+0x190>
     de0:	4e6030ef          	jal	ra,42c6 <puts>
     de4:	b5d5                	j	cc8 <PD_Main_Proc+0x10a>
     de6:	247a                	lhu	a4,14(s0)
     de8:	6785                	lui	a5,0x1
     dea:	38878793          	addi	a5,a5,904 # 1388 <key_off_click_handle+0x1e>
     dee:	e0e7fae3          	bgeu	a5,a4,c02 <PD_Main_Proc+0x44>
     df2:	00005537          	lui	a0,0x5
     df6:	71450513          	addi	a0,a0,1812 # 5714 <_read+0x19c>
     dfa:	4cc030ef          	jal	ra,42c6 <puts>
     dfe:	bd95                	j	c72 <PD_Main_Proc+0xb4>
     e00:	4515                	li	a0,5
     e02:	200030ef          	jal	ra,4002 <Delay_Ms>
     e06:	2c1e                	lhu	a5,24(s0)
     e08:	00248a93          	addi	s5,s1,2
     e0c:	9bed                	andi	a5,a5,-5
     e0e:	ac1e                	sh	a5,24(s0)
     e10:	00005b37          	lui	s6,0x5
     e14:	3185                	jal	a74 <PD_Save_Adapter_SrcCap>
     e16:	84118a13          	addi	s4,gp,-1983 # 20000259 <PDO_Len>
     e1a:	000a4783          	lbu	a5,0(s4)
     e1e:	0527f863          	bgeu	a5,s2,e6e <PD_Main_Proc+0x2b0>
     e22:	00005537          	lui	a0,0x5
     e26:	66450513          	addi	a0,a0,1636 # 5664 <_read+0xec>
     e2a:	49c030ef          	jal	ra,42c6 <puts>
     e2e:	000a4503          	lbu	a0,0(s4)
     e32:	4789                	li	a5,2
     e34:	85218993          	addi	s3,gp,-1966 # 2000026a <snk_vbus_type>
     e38:	85018913          	addi	s2,gp,-1968 # 20000268 <snk_vbus_current>
     e3c:	04a7fa63          	bgeu	a5,a0,e90 <PD_Main_Proc+0x2d2>
     e40:	450d                	li	a0,3
     e42:	31f9                	jal	b10 <PDO_Request>
     e44:	478d                	li	a5,3
     e46:	00f98023          	sb	a5,0(s3)
     e4a:	34bc                	lbu	a5,11(s1)
     e4c:	24b8                	lbu	a4,10(s1)
     e4e:	07a2                	slli	a5,a5,0x8
     e50:	3007f793          	andi	a5,a5,768
     e54:	97ba                	add	a5,a5,a4
     e56:	00f91023          	sh	a5,0(s2)
     e5a:	c24ff0ef          	jal	ra,27e <PD_Rx_Mode>
     e5e:	2c1e                	lhu	a5,24(s0)
     e60:	00041923          	sh	zero,18(s0)
     e64:	9bf9                	andi	a5,a5,-2
     e66:	ac1e                	sh	a5,24(s0)
     e68:	0141                	addi	sp,sp,16
     e6a:	ae0ff06f          	j	14a <__riscv_restore_4>
     e6e:	854a                	mv	a0,s2
     e70:	00e10693          	addi	a3,sp,14
     e74:	0070                	addi	a2,sp,12
     e76:	85d6                	mv	a1,s5
     e78:	318d                	jal	ada <PD_PDO_Analyse>
     e7a:	8734                	lhu	a3,14(sp)
     e7c:	8630                	lhu	a2,12(sp)
     e7e:	85ca                	mv	a1,s2
     e80:	72cb0513          	addi	a0,s6,1836 # 572c <_read+0x1b4>
     e84:	0905                	addi	s2,s2,1
     e86:	32c030ef          	jal	ra,41b2 <iprintf>
     e8a:	0ff97913          	andi	s2,s2,255
     e8e:	b761                	j	e16 <PD_Main_Proc+0x258>
     e90:	3141                	jal	b10 <PDO_Request>
     e92:	478d                	li	a5,3
     e94:	00f98023          	sb	a5,0(s3)
     e98:	000a4783          	lbu	a5,0(s4)
     e9c:	17fd                	addi	a5,a5,-1
     e9e:	078a                	slli	a5,a5,0x2
     ea0:	94be                	add	s1,s1,a5
     ea2:	30bc                	lbu	a5,3(s1)
     ea4:	20b8                	lbu	a4,2(s1)
     ea6:	07a2                	slli	a5,a5,0x8
     ea8:	1007f793          	andi	a5,a5,256
     eac:	b765                	j	e54 <PD_Main_Proc+0x296>
     eae:	4018                	lw	a4,0(s0)
     eb0:	00041723          	sh	zero,14(s0)
     eb4:	4799                	li	a5,6
     eb6:	00f71563          	bne	a4,a5,ec0 <PD_Main_Proc+0x302>
     eba:	47a5                	li	a5,9
     ebc:	c01c                	sw	a5,0(s0)
     ebe:	bf71                	j	e5a <PD_Main_Proc+0x29c>
     ec0:	512010ef          	jal	ra,23d2 <get_PD_Status>
     ec4:	d97d                	beqz	a0,eba <PD_Main_Proc+0x2fc>
     ec6:	bf51                	j	e5a <PD_Main_Proc+0x29c>
     ec8:	20ec                	lbu	a1,6(s1)
     eca:	00005537          	lui	a0,0x5
     ece:	75450513          	addi	a0,a0,1876 # 5754 <_read+0x1dc>
     ed2:	2e0030ef          	jal	ra,41b2 <iprintf>
     ed6:	4509                	li	a0,2
     ed8:	12a030ef          	jal	ra,4002 <Delay_Ms>
     edc:	30cc                	lbu	a1,5(s1)
     ede:	00005537          	lui	a0,0x5
     ee2:	76c50513          	addi	a0,a0,1900 # 576c <_read+0x1f4>
     ee6:	8591                	srai	a1,a1,0x4
     ee8:	899d                	andi	a1,a1,7
     eea:	a80c                	sb	a1,16(s0)
     eec:	2c6030ef          	jal	ra,41b2 <iprintf>
     ef0:	2814                	lbu	a3,16(s0)
     ef2:	4719                	li	a4,6
     ef4:	fff68793          	addi	a5,a3,-1
     ef8:	0ff7f793          	andi	a5,a5,255
     efc:	00f77563          	bgeu	a4,a5,f06 <PD_Main_Proc+0x348>
     f00:	02000793          	li	a5,32
     f04:	bf65                	j	ebc <PD_Main_Proc+0x2fe>
     f06:	20f0                	lbu	a2,6(s1)
     f08:	05500713          	li	a4,85
     f0c:	84818793          	addi	a5,gp,-1976 # 20000260 <Vbus_Select>
     f10:	08e61663          	bne	a2,a4,f9c <PD_Main_Proc+0x3de>
     f14:	30f8                	lbu	a4,7(s1)
     f16:	0aa00593          	li	a1,170
     f1a:	08b71163          	bne	a4,a1,f9c <PD_Main_Proc+0x3de>
     f1e:	248c                	lbu	a1,8(s1)
     f20:	06c59e63          	bne	a1,a2,f9c <PD_Main_Proc+0x3de>
     f24:	3490                	lbu	a2,9(s1)
     f26:	06e61b63          	bne	a2,a4,f9c <PD_Main_Proc+0x3de>
     f2a:	8081c583          	lbu	a1,-2040(gp) # 20000220 <SrcCap_size>
     f2e:	4631                	li	a2,12
     f30:	84c18713          	addi	a4,gp,-1972 # 20000264 <pd_power_error>
     f34:	06c59063          	bne	a1,a2,f94 <PD_Main_Proc+0x3d6>
     f38:	00070023          	sb	zero,0(a4)
     f3c:	470d                	li	a4,3
     f3e:	a398                	sb	a4,0(a5)
     f40:	4685                	li	a3,1
     f42:	84d18ca3          	sb	a3,-1959(gp) # 20000271 <valve_connect>
     f46:	2388                	lbu	a0,0(a5)
     f48:	00e10693          	addi	a3,sp,14
     f4c:	0070                	addi	a2,sp,12
     f4e:	00248593          	addi	a1,s1,2
     f52:	84a18b23          	sb	a0,-1962(gp) # 2000026e <src_vbus_type>
     f56:	3651                	jal	ada <PD_PDO_Analyse>
     f58:	862c                	lhu	a1,12(sp)
     f5a:	47a9                	li	a5,10
     f5c:	00005537          	lui	a0,0x5
     f60:	02f5d7b3          	divu	a5,a1,a5
     f64:	78850513          	addi	a0,a0,1928 # 5788 <_read+0x210>
     f68:	84f19a23          	sh	a5,-1964(gp) # 2000026c <src_vbus_current>
     f6c:	246030ef          	jal	ra,41b2 <iprintf>
     f70:	209c                	lbu	a5,0(s1)
     f72:	2c1a                	lhu	a4,24(s0)
     f74:	00041723          	sh	zero,14(s0)
     f78:	0c07f793          	andi	a5,a5,192
     f7c:	f8078793          	addi	a5,a5,-128
     f80:	0017b793          	seqz	a5,a5
     f84:	079a                	slli	a5,a5,0x6
     f86:	fbf77713          	andi	a4,a4,-65
     f8a:	8fd9                	or	a5,a5,a4
     f8c:	ac1e                	sh	a5,24(s0)
     f8e:	47bd                	li	a5,15
     f90:	c01c                	sw	a5,0(s0)
     f92:	b5e1                	j	e5a <PD_Main_Proc+0x29c>
     f94:	4605                	li	a2,1
     f96:	a310                	sb	a2,0(a4)
     f98:	a394                	sb	a3,0(a5)
     f9a:	b75d                	j	f40 <PD_Main_Proc+0x382>
     f9c:	a394                	sb	a3,0(a5)
     f9e:	b765                	j	f46 <PD_Main_Proc+0x388>
     fa0:	85218493          	addi	s1,gp,-1966 # 2000026a <snk_vbus_type>
     fa4:	8501d583          	lhu	a1,-1968(gp) # 20000268 <snk_vbus_current>
     fa8:	2088                	lbu	a0,0(s1)
     faa:	351010ef          	jal	ra,2afa <my_spi_SNK>
     fae:	2098                	lbu	a4,0(s1)
     fb0:	478d                	li	a5,3
     fb2:	00f71563          	bne	a4,a5,fbc <PD_Main_Proc+0x3fe>
     fb6:	450d                	li	a0,3
     fb8:	33a010ef          	jal	ra,22f2 <pd_chip_lock_voltage_set>
     fbc:	00005537          	lui	a0,0x5
     fc0:	79c50513          	addi	a0,a0,1948 # 579c <_read+0x224>
     fc4:	302030ef          	jal	ra,42c6 <puts>
     fc8:	47a9                	li	a5,10
     fca:	bdcd                	j	ebc <PD_Main_Proc+0x2fe>
     fcc:	4505                	li	a0,1
     fce:	034030ef          	jal	ra,4002 <Delay_Ms>
     fd2:	4591                	li	a1,4
     fd4:	4501                	li	a0,0
     fd6:	3c0d                	jal	a08 <PD_Load_Header>
     fd8:	20000537          	lui	a0,0x20000
     fdc:	4591                	li	a1,4
     fde:	21850513          	addi	a0,a0,536 # 20000218 <SinkCap_5V1A_Tab>
     fe2:	3c95                	jal	a56 <PD_Send_Handle>
     fe4:	bd9d                	j	e5a <PD_Main_Proc+0x29c>
     fe6:	4505                	li	a0,1
     fe8:	01a030ef          	jal	ra,4002 <Delay_Ms>
     fec:	458d                	li	a1,3
     fee:	4501                	li	a0,0
     ff0:	3c21                	jal	a08 <PD_Load_Header>
     ff2:	4581                	li	a1,0
     ff4:	4501                	li	a0,0
     ff6:	b7f5                	j	fe2 <PD_Main_Proc+0x424>
     ff8:	4505                	li	a0,1
     ffa:	008030ef          	jal	ra,4002 <Delay_Ms>
     ffe:	4585                	li	a1,1
    1000:	4505                	li	a0,1
    1002:	3419                	jal	a08 <PD_Load_Header>
    1004:	20000537          	lui	a0,0x20000
    1008:	45f1                	li	a1,28
    100a:	00050513          	mv	a0,a0
    100e:	bfd1                	j	fe2 <PD_Main_Proc+0x424>
    1010:	4505                	li	a0,1
    1012:	7f1020ef          	jal	ra,4002 <Delay_Ms>
    1016:	4589                	li	a1,2
    1018:	4505                	li	a0,1
    101a:	32fd                	jal	a08 <PD_Load_Header>
    101c:	45a1                	li	a1,8
    101e:	80c18513          	addi	a0,gp,-2036 # 20000224 <Status_Ext_Tab>
    1022:	b7c1                	j	fe2 <PD_Main_Proc+0x424>
    1024:	4505                	li	a0,1
    1026:	7dd020ef          	jal	ra,4002 <Delay_Ms>
    102a:	4591                	li	a1,4
    102c:	b7c9                	j	fee <PD_Main_Proc+0x430>
    102e:	20bc                	lbu	a5,2(s1)
    1030:	0c07f793          	andi	a5,a5,192
    1034:	e20793e3          	bnez	a5,e5a <PD_Main_Proc+0x29c>
    1038:	4505                	li	a0,1
    103a:	7c9020ef          	jal	ra,4002 <Delay_Ms>
    103e:	45bd                	li	a1,15
    1040:	4501                	li	a0,0
    1042:	32d9                	jal	a08 <PD_Load_Header>
    1044:	30bc                	lbu	a5,3(s1)
    1046:	2c1a                	lhu	a4,24(s0)
    1048:	4591                	li	a1,4
    104a:	0607f793          	andi	a5,a5,96
    104e:	00f037b3          	snez	a5,a5
    1052:	079e                	slli	a5,a5,0x7
    1054:	f7f77713          	andi	a4,a4,-129
    1058:	8fd9                	or	a5,a5,a4
    105a:	ac1e                	sh	a5,24(s0)
    105c:	20bc                	lbu	a5,2(s1)
    105e:	00248513          	addi	a0,s1,2
    1062:	f807e793          	ori	a5,a5,-128
    1066:	a0bc                	sb	a5,2(s1)
    1068:	bfad                	j	fe2 <PD_Main_Proc+0x424>
    106a:	4505                	li	a0,1
    106c:	797020ef          	jal	ra,4002 <Delay_Ms>
    1070:	00248513          	addi	a0,s1,2
    1074:	768010ef          	jal	ra,27dc <my_PD_Valve_Receive>
    1078:	b3cd                	j	e5a <PD_Main_Proc+0x29c>
    107a:	00005537          	lui	a0,0x5
    107e:	7a850513          	addi	a0,a0,1960 # 57a8 <_read+0x230>
    1082:	244030ef          	jal	ra,42c6 <puts>
    1086:	bbd1                	j	e5a <PD_Main_Proc+0x29c>

00001088 <my_pd_connect_valve>:
    1088:	88eff2ef          	jal	t0,116 <__riscv_save_4>
    108c:	84d18913          	addi	s2,gp,-1971 # 20000265 <pd_valve_status>
    1090:	00094483          	lbu	s1,0(s2)
    1094:	4785                	li	a5,1
    1096:	02f48e63          	beq	s1,a5,10d2 <my_pd_connect_valve+0x4a>
    109a:	c899                	beqz	s1,10b0 <my_pd_connect_valve+0x28>
    109c:	4789                	li	a5,2
    109e:	84d18413          	addi	s0,gp,-1971 # 20000265 <pd_valve_status>
    10a2:	06f48f63          	beq	s1,a5,1120 <my_pd_connect_valve+0x98>
    10a6:	478d                	li	a5,3
    10a8:	08f48863          	beq	s1,a5,1138 <my_pd_connect_valve+0xb0>
    10ac:	89eff06f          	j	14a <__riscv_restore_4>
    10b0:	8591c403          	lbu	s0,-1959(gp) # 20000271 <valve_connect>
    10b4:	fef41ce3          	bne	s0,a5,10ac <my_pd_connect_valve+0x24>
    10b8:	00005537          	lui	a0,0x5
    10bc:	7d050513          	addi	a0,a0,2000 # 57d0 <_read+0x258>
    10c0:	206030ef          	jal	ra,42c6 <puts>
    10c4:	7d000713          	li	a4,2000
    10c8:	00890023          	sb	s0,0(s2)
    10cc:	84e19723          	sh	a4,-1970(gp) # 20000266 <pd_valve_time>
    10d0:	bff1                	j	10ac <my_pd_connect_valve+0x24>
    10d2:	84e18993          	addi	s3,gp,-1970 # 20000266 <pd_valve_time>
    10d6:	84e18513          	addi	a0,gp,-1970 # 20000266 <pd_valve_time>
    10da:	247010ef          	jal	ra,2b20 <my_time_tick>
    10de:	d579                	beqz	a0,10ac <my_pd_connect_valve+0x24>
    10e0:	00005537          	lui	a0,0x5
    10e4:	7e450513          	addi	a0,a0,2020 # 57e4 <_read+0x26c>
    10e8:	1de030ef          	jal	ra,42c6 <puts>
    10ec:	4789                	li	a5,2
    10ee:	45c1                	li	a1,16
    10f0:	4501                	li	a0,0
    10f2:	00f90023          	sb	a5,0(s2)
    10f6:	9491ae23          	sw	s1,-1700(gp) # 20000374 <pd_valve_send_buff>
    10fa:	90fff0ef          	jal	ra,a08 <PD_Load_Header>
    10fe:	4591                	li	a1,4
    1100:	95c18513          	addi	a0,gp,-1700 # 20000374 <pd_valve_send_buff>
    1104:	953ff0ef          	jal	ra,a56 <PD_Send_Handle>
    1108:	4501                	li	a0,0
    110a:	562010ef          	jal	ra,266c <my_Valve_Connect_PD>
    110e:	84c1c503          	lbu	a0,-1972(gp) # 20000264 <pd_power_error>
    1112:	64e010ef          	jal	ra,2760 <my_Valve_Set_power_error>
    1116:	1f400793          	li	a5,500
    111a:	00f99023          	sh	a5,0(s3)
    111e:	b779                	j	10ac <my_pd_connect_valve+0x24>
    1120:	84e18513          	addi	a0,gp,-1970 # 20000266 <pd_valve_time>
    1124:	1fd010ef          	jal	ra,2b20 <my_time_tick>
    1128:	c901                	beqz	a0,1138 <my_pd_connect_valve+0xb0>
    112a:	478d                	li	a5,3
    112c:	a01c                	sb	a5,0(s0)
    112e:	368020ef          	jal	ra,3496 <get_valve_status>
    1132:	c919                	beqz	a0,1148 <my_pd_connect_valve+0xc0>
    1134:	56e010ef          	jal	ra,26a2 <my_Valve_Controls_Open>
    1138:	8591c783          	lbu	a5,-1959(gp) # 20000271 <valve_connect>
    113c:	fba5                	bnez	a5,10ac <my_pd_connect_valve+0x24>
    113e:	00040023          	sb	zero,0(s0)
    1142:	542010ef          	jal	ra,2684 <my_Valve_Disconnect>
    1146:	b79d                	j	10ac <my_pd_connect_valve+0x24>
    1148:	598010ef          	jal	ra,26e0 <my_Valve_Controls_Close>
    114c:	b7f5                	j	1138 <my_pd_connect_valve+0xb0>

0000114e <my_pd_close_valve>:
    114e:	fe3fe2ef          	jal	t0,130 <__riscv_save_0>
    1152:	478d                	li	a5,3
    1154:	45c1                	li	a1,16
    1156:	4501                	li	a0,0
    1158:	94f1ae23          	sw	a5,-1700(gp) # 20000374 <pd_valve_send_buff>
    115c:	8adff0ef          	jal	ra,a08 <PD_Load_Header>
    1160:	4591                	li	a1,4
    1162:	95c18513          	addi	a0,gp,-1700 # 20000374 <pd_valve_send_buff>
    1166:	8f1ff0ef          	jal	ra,a56 <PD_Send_Handle>
    116a:	febfe06f          	j	154 <__riscv_restore_0>

0000116e <my_pd_open_valve>:
    116e:	fc3fe2ef          	jal	t0,130 <__riscv_save_0>
    1172:	4789                	li	a5,2
    1174:	45c1                	li	a1,16
    1176:	4501                	li	a0,0
    1178:	94f1ae23          	sw	a5,-1700(gp) # 20000374 <pd_valve_send_buff>
    117c:	88dff0ef          	jal	ra,a08 <PD_Load_Header>
    1180:	4591                	li	a1,4
    1182:	95c18513          	addi	a0,gp,-1700 # 20000374 <pd_valve_send_buff>
    1186:	8d1ff0ef          	jal	ra,a56 <PD_Send_Handle>
    118a:	fcbfe06f          	j	154 <__riscv_restore_0>

0000118e <my_pd_check_valve>:
    118e:	fa3fe2ef          	jal	t0,130 <__riscv_save_0>
    1192:	4791                	li	a5,4
    1194:	45c1                	li	a1,16
    1196:	4501                	li	a0,0
    1198:	94f1ae23          	sw	a5,-1700(gp) # 20000374 <pd_valve_send_buff>
    119c:	86dff0ef          	jal	ra,a08 <PD_Load_Header>
    11a0:	4591                	li	a1,4
    11a2:	95c18513          	addi	a0,gp,-1700 # 20000374 <pd_valve_send_buff>
    11a6:	8b1ff0ef          	jal	ra,a56 <PD_Send_Handle>
    11aa:	fabfe06f          	j	154 <__riscv_restore_0>

000011ae <Button_Create>:
    11ae:	f69fe2ef          	jal	t0,116 <__riscv_save_4>
    11b2:	89aa                	mv	s3,a0
    11b4:	842e                	mv	s0,a1
    11b6:	84b2                	mv	s1,a2
    11b8:	8936                	mv	s2,a3
    11ba:	e599                	bnez	a1,11c8 <Button_Create+0x1a>
    11bc:	00005537          	lui	a0,0x5
    11c0:	7f850513          	addi	a0,a0,2040 # 57f8 <_read+0x280>
    11c4:	7ef020ef          	jal	ra,41b2 <iprintf>
    11c8:	4581                	li	a1,0
    11ca:	05400613          	li	a2,84
    11ce:	8522                	mv	a0,s0
    11d0:	f91fe0ef          	jal	ra,160 <memset>
    11d4:	00440793          	addi	a5,s0,4
    11d8:	4701                	li	a4,0
    11da:	02000593          	li	a1,32
    11de:	00e986b3          	add	a3,s3,a4
    11e2:	00068503          	lb	a0,0(a3)
    11e6:	0785                	addi	a5,a5,1
    11e8:	40e58633          	sub	a2,a1,a4
    11ec:	fea78fa3          	sb	a0,-1(a5)
    11f0:	e529                	bnez	a0,123a <Button_Create+0x8c>
    11f2:	00c78733          	add	a4,a5,a2
    11f6:	0785                	addi	a5,a5,1
    11f8:	02e79e63          	bne	a5,a4,1234 <Button_Create+0x86>
    11fc:	6785                	lui	a5,0x1
    11fe:	90978793          	addi	a5,a5,-1783 # 909 <USBPD_IRQHandler+0xa5>
    1202:	b05e                	sh	a5,36(s0)
    1204:	47a5                	li	a5,9
    1206:	02f40423          	sb	a5,40(s0)
    120a:	c004                	sw	s1,0(s0)
    120c:	03240323          	sb	s2,38(s0)
    1210:	9482                	jalr	s1
    1212:	02a403a3          	sb	a0,39(s0)
    1216:	00006537          	lui	a0,0x6
    121a:	04040723          	sb	zero,78(s0)
    121e:	81050513          	addi	a0,a0,-2032 # 5810 <_read+0x298>
    1222:	791020ef          	jal	ra,41b2 <iprintf>
    1226:	85c18793          	addi	a5,gp,-1956 # 20000274 <Head_Button>
    122a:	4398                	lw	a4,0(a5)
    122c:	c380                	sw	s0,0(a5)
    122e:	c838                	sw	a4,80(s0)
    1230:	f1bfe06f          	j	14a <__riscv_restore_4>
    1234:	fe078fa3          	sb	zero,-1(a5)
    1238:	bf7d                	j	11f6 <Button_Create+0x48>
    123a:	0705                	addi	a4,a4,1
    123c:	fab711e3          	bne	a4,a1,11de <Button_Create+0x30>
    1240:	bf75                	j	11fc <Button_Create+0x4e>

00001242 <Button_Attach>:
    1242:	eeffe2ef          	jal	t0,130 <__riscv_save_0>
    1246:	1141                	addi	sp,sp,-16
    1248:	842a                	mv	s0,a0
    124a:	e919                	bnez	a0,1260 <Button_Attach+0x1e>
    124c:	00005537          	lui	a0,0x5
    1250:	7f850513          	addi	a0,a0,2040 # 57f8 <_read+0x280>
    1254:	c632                	sw	a2,12(sp)
    1256:	c42e                	sw	a1,8(sp)
    1258:	75b020ef          	jal	ra,41b2 <iprintf>
    125c:	4632                	lw	a2,12(sp)
    125e:	45a2                	lw	a1,8(sp)
    1260:	479d                	li	a5,7
    1262:	00f59c63          	bne	a1,a5,127a <Button_Attach+0x38>
    1266:	d450                	sw	a2,44(s0)
    1268:	d810                	sw	a2,48(s0)
    126a:	d850                	sw	a2,52(s0)
    126c:	dc10                	sw	a2,56(s0)
    126e:	dc50                	sw	a2,60(s0)
    1270:	c030                	sw	a2,64(s0)
    1272:	c070                	sw	a2,68(s0)
    1274:	0141                	addi	sp,sp,16
    1276:	edffe06f          	j	154 <__riscv_restore_0>
    127a:	05a1                	addi	a1,a1,8
    127c:	058a                	slli	a1,a1,0x2
    127e:	942e                	add	s0,s0,a1
    1280:	c450                	sw	a2,12(s0)
    1282:	bfcd                	j	1274 <Button_Attach+0x32>

00001284 <Button_Cycle_Process>:
    1284:	eadfe2ef          	jal	t0,130 <__riscv_save_0>
    1288:	411c                	lw	a5,0(a0)
    128a:	842a                	mv	s0,a0
    128c:	9782                	jalr	a5
    128e:	02740783          	lb	a5,39(s0)
    1292:	84aa                	mv	s1,a0
    1294:	02f50b63          	beq	a0,a5,12ca <Button_Cycle_Process+0x46>
    1298:	04e44783          	lbu	a5,78(s0)
    129c:	03100713          	li	a4,49
    12a0:	0785                	addi	a5,a5,1
    12a2:	0ff7f793          	andi	a5,a5,255
    12a6:	04f40723          	sb	a5,78(s0)
    12aa:	02f77063          	bgeu	a4,a5,12ca <Button_Cycle_Process+0x46>
    12ae:	02640783          	lb	a5,38(s0)
    12b2:	02a403a3          	sb	a0,39(s0)
    12b6:	04040723          	sb	zero,78(s0)
    12ba:	02f51e63          	bne	a0,a5,12f6 <Button_Cycle_Process+0x72>
    12be:	545c                	lw	a5,44(s0)
    12c0:	02040223          	sb	zero,36(s0)
    12c4:	c79d                	beqz	a5,12f2 <Button_Cycle_Process+0x6e>
    12c6:	8522                	mv	a0,s0
    12c8:	9782                	jalr	a5
    12ca:	02440703          	lb	a4,36(s0)
    12ce:	47a5                	li	a5,9
    12d0:	02f71163          	bne	a4,a5,12f2 <Button_Cycle_Process+0x6e>
    12d4:	02640783          	lb	a5,38(s0)
    12d8:	00f49d63          	bne	s1,a5,12f2 <Button_Cycle_Process+0x6e>
    12dc:	04d44783          	lbu	a5,77(s0)
    12e0:	03100713          	li	a4,49
    12e4:	0785                	addi	a5,a5,1
    12e6:	0ff7f793          	andi	a5,a5,255
    12ea:	00f76e63          	bltu	a4,a5,1306 <Button_Cycle_Process+0x82>
    12ee:	04f406a3          	sb	a5,77(s0)
    12f2:	e63fe06f          	j	154 <__riscv_restore_0>
    12f6:	02440783          	lb	a5,36(s0)
    12fa:	fbe1                	bnez	a5,12ca <Button_Cycle_Process+0x46>
    12fc:	4785                	li	a5,1
    12fe:	02f40223          	sb	a5,36(s0)
    1302:	581c                	lw	a5,48(s0)
    1304:	b7c1                	j	12c4 <Button_Cycle_Process+0x40>
    1306:	545c                	lw	a5,44(s0)
    1308:	040406a3          	sb	zero,77(s0)
    130c:	02040223          	sb	zero,36(s0)
    1310:	d3ed                	beqz	a5,12f2 <Button_Cycle_Process+0x6e>
    1312:	8522                	mv	a0,s0
    1314:	9782                	jalr	a5
    1316:	bff1                	j	12f2 <Button_Cycle_Process+0x6e>

00001318 <button_handle>:
    1318:	e19fe2ef          	jal	t0,130 <__riscv_save_0>
    131c:	85c1a403          	lw	s0,-1956(gp) # 20000274 <Head_Button>
    1320:	e019                	bnez	s0,1326 <button_handle+0xe>
    1322:	e33fe06f          	j	154 <__riscv_restore_0>
    1326:	8522                	mv	a0,s0
    1328:	3fb1                	jal	1284 <Button_Cycle_Process>
    132a:	4820                	lw	s0,80(s0)
    132c:	bfd5                	j	1320 <button_handle+0x8>

0000132e <NMI_Handler>:
    132e:	a001                	j	132e <NMI_Handler>

00001330 <HardFault_Handler>:
    1330:	a001                	j	1330 <HardFault_Handler>

00001332 <key_on_click_handle>:
    1332:	dfffe2ef          	jal	t0,130 <__riscv_save_0>
    1336:	00006537          	lui	a0,0x6
    133a:	8bc50513          	addi	a0,a0,-1860 # 58bc <_read+0x344>
    133e:	789020ef          	jal	ra,42c6 <puts>
    1342:	8201a783          	lw	a5,-2016(gp) # 20000238 <DeviceStatus>
    1346:	471d                	li	a4,7
    1348:	00f76b63          	bltu	a4,a5,135e <key_on_click_handle+0x2c>
    134c:	6719                	lui	a4,0x6
    134e:	078a                	slli	a5,a5,0x2
    1350:	82870713          	addi	a4,a4,-2008 # 5828 <_read+0x2b0>
    1354:	97ba                	add	a5,a5,a4
    1356:	439c                	lw	a5,0(a5)
    1358:	8782                	jr	a5
    135a:	08e020ef          	jal	ra,33e8 <valve_open>
    135e:	df7fe06f          	j	154 <__riscv_restore_0>
    1362:	2905                	jal	1792 <beep_once>
    1364:	bfed                	j	135e <key_on_click_handle+0x2c>
    1366:	2ce5                	jal	165e <beep_three_times>
    1368:	bfdd                	j	135e <key_on_click_handle+0x2c>

0000136a <key_off_click_handle>:
    136a:	dc7fe2ef          	jal	t0,130 <__riscv_save_0>
    136e:	00006537          	lui	a0,0x6
    1372:	8a450513          	addi	a0,a0,-1884 # 58a4 <_read+0x32c>
    1376:	751020ef          	jal	ra,42c6 <puts>
    137a:	8201a783          	lw	a5,-2016(gp) # 20000238 <DeviceStatus>
    137e:	4721                	li	a4,8
    1380:	00f76b63          	bltu	a4,a5,1396 <key_off_click_handle+0x2c>
    1384:	6719                	lui	a4,0x6
    1386:	078a                	slli	a5,a5,0x2
    1388:	84870713          	addi	a4,a4,-1976 # 5848 <_read+0x2d0>
    138c:	97ba                	add	a5,a5,a4
    138e:	439c                	lw	a5,0(a5)
    1390:	8782                	jr	a5
    1392:	0b8020ef          	jal	ra,344a <valve_close>
    1396:	dbffe06f          	j	154 <__riscv_restore_0>
    139a:	0b0020ef          	jal	ra,344a <valve_close>
    139e:	26d1                	jal	1762 <beep_stop>
    13a0:	bfdd                	j	1396 <key_off_click_handle+0x2c>
    13a2:	2ee1                	jal	177a <beep_key_down>
    13a4:	3ca020ef          	jal	ra,376e <warning_all_clear>
    13a8:	b7fd                	j	1396 <key_off_click_handle+0x2c>
    13aa:	2e65                	jal	1762 <beep_stop>
    13ac:	26f9                	jal	177a <beep_key_down>
    13ae:	b7e5                	j	1396 <key_off_click_handle+0x2c>

000013b0 <water_leak_up_callback>:
    13b0:	d81fe2ef          	jal	t0,130 <__riscv_save_0>
    13b4:	338020ef          	jal	ra,36ec <MasterStatusChangeToDeAvtive>
    13b8:	00006537          	lui	a0,0x6
    13bc:	8f050513          	addi	a0,a0,-1808 # 58f0 <_read+0x378>
    13c0:	707020ef          	jal	ra,42c6 <puts>
    13c4:	d91fe06f          	j	154 <__riscv_restore_0>

000013c8 <water_leak_down_callback>:
    13c8:	d69fe2ef          	jal	t0,130 <__riscv_save_0>
    13cc:	8b01a503          	lw	a0,-1872(gp) # 200002c8 <MasterSensorLeakEvent>
    13d0:	8b018793          	addi	a5,gp,-1872 # 200002c8 <MasterSensorLeakEvent>
    13d4:	43cc                	lw	a1,4(a5)
    13d6:	2ba020ef          	jal	ra,3690 <warning_enable>
    13da:	00006537          	lui	a0,0x6
    13de:	8d450513          	addi	a0,a0,-1836 # 58d4 <_read+0x35c>
    13e2:	6e5020ef          	jal	ra,42c6 <puts>
    13e6:	d6ffe06f          	j	154 <__riscv_restore_0>

000013ea <water_lost_plugout_callback>:
    13ea:	d47fe2ef          	jal	t0,130 <__riscv_save_0>
    13ee:	8b81a503          	lw	a0,-1864(gp) # 200002d0 <MasterSensorLostEvent>
    13f2:	8b818793          	addi	a5,gp,-1864 # 200002d0 <MasterSensorLostEvent>
    13f6:	43cc                	lw	a1,4(a5)
    13f8:	298020ef          	jal	ra,3690 <warning_enable>
    13fc:	00006537          	lui	a0,0x6
    1400:	92050513          	addi	a0,a0,-1760 # 5920 <_read+0x3a8>
    1404:	6c3020ef          	jal	ra,42c6 <puts>
    1408:	d4dfe06f          	j	154 <__riscv_restore_0>

0000140c <water_lost_plugin_callback>:
    140c:	d25fe2ef          	jal	t0,130 <__riscv_save_0>
    1410:	3a0020ef          	jal	ra,37b0 <warning_lost_clear>
    1414:	00006537          	lui	a0,0x6
    1418:	90850513          	addi	a0,a0,-1784 # 5908 <_read+0x390>
    141c:	6ab020ef          	jal	ra,42c6 <puts>
    1420:	d35fe06f          	j	154 <__riscv_restore_0>

00001424 <read_key_on>:
    1424:	d0dfe2ef          	jal	t0,130 <__riscv_save_0>
    1428:	40011537          	lui	a0,0x40011
    142c:	4585                	li	a1,1
    142e:	c0050513          	addi	a0,a0,-1024 # 40010c00 <_eusrstack+0x2000bc00>
    1432:	5a8020ef          	jal	ra,39da <GPIO_ReadInputDataBit>
    1436:	d1ffe06f          	j	154 <__riscv_restore_0>

0000143a <read_key_off>:
    143a:	cf7fe2ef          	jal	t0,130 <__riscv_save_0>
    143e:	40011537          	lui	a0,0x40011
    1442:	45a1                	li	a1,8
    1444:	c0050513          	addi	a0,a0,-1024 # 40010c00 <_eusrstack+0x2000bc00>
    1448:	592020ef          	jal	ra,39da <GPIO_ReadInputDataBit>
    144c:	d09fe06f          	j	154 <__riscv_restore_0>

00001450 <read_water_leak>:
    1450:	ce1fe2ef          	jal	t0,130 <__riscv_save_0>
    1454:	4585                	li	a1,1
    1456:	40011537          	lui	a0,0x40011
    145a:	580020ef          	jal	ra,39da <GPIO_ReadInputDataBit>
    145e:	cf7fe06f          	j	154 <__riscv_restore_0>

00001462 <read_water_lost>:
    1462:	ccffe2ef          	jal	t0,130 <__riscv_save_0>
    1466:	40011537          	lui	a0,0x40011
    146a:	20000593          	li	a1,512
    146e:	c0050513          	addi	a0,a0,-1024 # 40010c00 <_eusrstack+0x2000bc00>
    1472:	568020ef          	jal	ra,39da <GPIO_ReadInputDataBit>
    1476:	cdffe06f          	j	154 <__riscv_restore_0>

0000147a <button_init>:
    147a:	c9dfe2ef          	jal	t0,116 <__riscv_save_4>
    147e:	1141                	addi	sp,sp,-16
    1480:	400114b7          	lui	s1,0x40011
    1484:	4405                	li	s0,1
    1486:	47a1                	li	a5,8
    1488:	04800913          	li	s2,72
    148c:	004c                	addi	a1,sp,4
    148e:	c0048513          	addi	a0,s1,-1024 # 40010c00 <_eusrstack+0x2000bc00>
    1492:	c23e                	sw	a5,4(sp)
    1494:	c64a                	sw	s2,12(sp)
    1496:	c422                	sw	s0,8(sp)
    1498:	3d4020ef          	jal	ra,386c <GPIO_Init>
    149c:	004c                	addi	a1,sp,4
    149e:	c0048513          	addi	a0,s1,-1024
    14a2:	c222                	sw	s0,4(sp)
    14a4:	c64a                	sw	s2,12(sp)
    14a6:	c422                	sw	s0,8(sp)
    14a8:	3c4020ef          	jal	ra,386c <GPIO_Init>
    14ac:	4911                	li	s2,4
    14ae:	004c                	addi	a1,sp,4
    14b0:	40011537          	lui	a0,0x40011
    14b4:	c222                	sw	s0,4(sp)
    14b6:	c64a                	sw	s2,12(sp)
    14b8:	c422                	sw	s0,8(sp)
    14ba:	3b2020ef          	jal	ra,386c <GPIO_Init>
    14be:	20000793          	li	a5,512
    14c2:	004c                	addi	a1,sp,4
    14c4:	c0048513          	addi	a0,s1,-1024
    14c8:	c23e                	sw	a5,4(sp)
    14ca:	c64a                	sw	s2,12(sp)
    14cc:	c422                	sw	s0,8(sp)
    14ce:	39e020ef          	jal	ra,386c <GPIO_Init>
    14d2:	00001637          	lui	a2,0x1
    14d6:	00006537          	lui	a0,0x6
    14da:	9c018593          	addi	a1,gp,-1600 # 200003d8 <key_on_btn>
    14de:	4681                	li	a3,0
    14e0:	42460613          	addi	a2,a2,1060 # 1424 <read_key_on>
    14e4:	86c50513          	addi	a0,a0,-1940 # 586c <_read+0x2f4>
    14e8:	31d9                	jal	11ae <Button_Create>
    14ea:	00001637          	lui	a2,0x1
    14ee:	00006537          	lui	a0,0x6
    14f2:	96c18593          	addi	a1,gp,-1684 # 20000384 <key_off_btn>
    14f6:	4681                	li	a3,0
    14f8:	43a60613          	addi	a2,a2,1082 # 143a <read_key_off>
    14fc:	87850513          	addi	a0,a0,-1928 # 5878 <_read+0x300>
    1500:	cafff0ef          	jal	ra,11ae <Button_Create>
    1504:	00001637          	lui	a2,0x1
    1508:	00006537          	lui	a0,0x6
    150c:	a1418593          	addi	a1,gp,-1516 # 2000042c <water_leak_btn>
    1510:	4681                	li	a3,0
    1512:	45060613          	addi	a2,a2,1104 # 1450 <read_water_leak>
    1516:	88450513          	addi	a0,a0,-1916 # 5884 <_read+0x30c>
    151a:	c95ff0ef          	jal	ra,11ae <Button_Create>
    151e:	00001637          	lui	a2,0x1
    1522:	00006537          	lui	a0,0x6
    1526:	4681                	li	a3,0
    1528:	a6818593          	addi	a1,gp,-1432 # 20000480 <water_lost_btn>
    152c:	46260613          	addi	a2,a2,1122 # 1462 <read_water_lost>
    1530:	89450513          	addi	a0,a0,-1900 # 5894 <_read+0x31c>
    1534:	c7bff0ef          	jal	ra,11ae <Button_Create>
    1538:	00001637          	lui	a2,0x1
    153c:	9c018513          	addi	a0,gp,-1600 # 200003d8 <key_on_btn>
    1540:	33260613          	addi	a2,a2,818 # 1332 <key_on_click_handle>
    1544:	4581                	li	a1,0
    1546:	39f5                	jal	1242 <Button_Attach>
    1548:	00001637          	lui	a2,0x1
    154c:	96c18513          	addi	a0,gp,-1684 # 20000384 <key_off_btn>
    1550:	36a60613          	addi	a2,a2,874 # 136a <key_off_click_handle>
    1554:	4581                	li	a1,0
    1556:	31f5                	jal	1242 <Button_Attach>
    1558:	00001637          	lui	a2,0x1
    155c:	a1418513          	addi	a0,gp,-1516 # 2000042c <water_leak_btn>
    1560:	3b060613          	addi	a2,a2,944 # 13b0 <water_leak_up_callback>
    1564:	4585                	li	a1,1
    1566:	39f1                	jal	1242 <Button_Attach>
    1568:	00001637          	lui	a2,0x1
    156c:	a1418513          	addi	a0,gp,-1516 # 2000042c <water_leak_btn>
    1570:	3c860613          	addi	a2,a2,968 # 13c8 <water_leak_down_callback>
    1574:	4581                	li	a1,0
    1576:	31f1                	jal	1242 <Button_Attach>
    1578:	00001637          	lui	a2,0x1
    157c:	a6818513          	addi	a0,gp,-1432 # 20000480 <water_lost_btn>
    1580:	40c60613          	addi	a2,a2,1036 # 140c <water_lost_plugin_callback>
    1584:	4585                	li	a1,1
    1586:	3975                	jal	1242 <Button_Attach>
    1588:	00001637          	lui	a2,0x1
    158c:	3ea60613          	addi	a2,a2,1002 # 13ea <water_lost_plugout_callback>
    1590:	4581                	li	a1,0
    1592:	a6818513          	addi	a0,gp,-1432 # 20000480 <water_lost_btn>
    1596:	cadff0ef          	jal	ra,1242 <Button_Attach>
    159a:	0141                	addi	sp,sp,16
    159c:	baffe06f          	j	14a <__riscv_restore_4>

000015a0 <beep_close>:
    15a0:	b91fe2ef          	jal	t0,130 <__riscv_save_0>
    15a4:	40011537          	lui	a0,0x40011
    15a8:	4601                	li	a2,0
    15aa:	08000593          	li	a1,128
    15ae:	c0050513          	addi	a0,a0,-1024 # 40010c00 <_eusrstack+0x2000bc00>
    15b2:	432020ef          	jal	ra,39e4 <GPIO_WriteBit>
    15b6:	b9ffe06f          	j	154 <__riscv_restore_0>

000015ba <beep_on>:
    15ba:	b77fe2ef          	jal	t0,130 <__riscv_save_0>
    15be:	40011537          	lui	a0,0x40011
    15c2:	4605                	li	a2,1
    15c4:	08000593          	li	a1,128
    15c8:	c0050513          	addi	a0,a0,-1024 # 40010c00 <_eusrstack+0x2000bc00>
    15cc:	418020ef          	jal	ra,39e4 <GPIO_WriteBit>
    15d0:	b85fe06f          	j	154 <__riscv_restore_0>

000015d4 <on_green_off>:
    15d4:	b5dfe2ef          	jal	t0,130 <__riscv_save_0>
    15d8:	40011537          	lui	a0,0x40011
    15dc:	4605                	li	a2,1
    15de:	4589                	li	a1,2
    15e0:	c0050513          	addi	a0,a0,-1024 # 40010c00 <_eusrstack+0x2000bc00>
    15e4:	400020ef          	jal	ra,39e4 <GPIO_WriteBit>
    15e8:	b6dfe06f          	j	154 <__riscv_restore_0>

000015ec <off_red_off>:
    15ec:	b45fe2ef          	jal	t0,130 <__riscv_save_0>
    15f0:	40011537          	lui	a0,0x40011
    15f4:	4605                	li	a2,1
    15f6:	04000593          	li	a1,64
    15fa:	c0050513          	addi	a0,a0,-1024 # 40010c00 <_eusrstack+0x2000bc00>
    15fe:	3e6020ef          	jal	ra,39e4 <GPIO_WriteBit>
    1602:	b53fe06f          	j	154 <__riscv_restore_0>

00001606 <off_red_on>:
    1606:	b2bfe2ef          	jal	t0,130 <__riscv_save_0>
    160a:	40011537          	lui	a0,0x40011
    160e:	4601                	li	a2,0
    1610:	04000593          	li	a1,64
    1614:	c0050513          	addi	a0,a0,-1024 # 40010c00 <_eusrstack+0x2000bc00>
    1618:	3cc020ef          	jal	ra,39e4 <GPIO_WriteBit>
    161c:	b39fe06f          	j	154 <__riscv_restore_0>

00001620 <on_green_on>:
    1620:	8641c783          	lbu	a5,-1948(gp) # 2000027c <led_valve_on_pause_flag>
    1624:	ef89                	bnez	a5,163e <on_green_on+0x1e>
    1626:	b0bfe2ef          	jal	t0,130 <__riscv_save_0>
    162a:	40011537          	lui	a0,0x40011
    162e:	4601                	li	a2,0
    1630:	4589                	li	a1,2
    1632:	c0050513          	addi	a0,a0,-1024 # 40010c00 <_eusrstack+0x2000bc00>
    1636:	3ae020ef          	jal	ra,39e4 <GPIO_WriteBit>
    163a:	b1bfe06f          	j	154 <__riscv_restore_0>
    163e:	8082                	ret

00001640 <led_handle>:
    1640:	86018793          	addi	a5,gp,-1952 # 20000278 <led_tick>
    1644:	4394                	lw	a3,0(a5)
    1646:	4729                	li	a4,10
    1648:	00d77a63          	bgeu	a4,a3,165c <led_handle+0x1c>
    164c:	ae5fe2ef          	jal	t0,130 <__riscv_save_0>
    1650:	0007a023          	sw	zero,0(a5)
    1654:	261010ef          	jal	ra,30b4 <led_ticks>
    1658:	afdfe06f          	j	154 <__riscv_restore_0>
    165c:	8082                	ret

0000165e <beep_three_times>:
    165e:	ad3fe2ef          	jal	t0,130 <__riscv_save_0>
    1662:	ef418513          	addi	a0,gp,-268 # 2000090c <beep_obj_three>
    1666:	1f9010ef          	jal	ra,305e <led_start>
    166a:	49418513          	addi	a0,gp,1172 # 20000eac <led_obj_off_red_three>
    166e:	1f1010ef          	jal	ra,305e <led_start>
    1672:	ae3fe06f          	j	154 <__riscv_restore_0>

00001676 <led_valve_fail>:
    1676:	abbfe2ef          	jal	t0,130 <__riscv_save_0>
    167a:	000064b7          	lui	s1,0x6
    167e:	a1048613          	addi	a2,s1,-1520 # 5a10 <_read+0x498>
    1682:	458d                	li	a1,3
    1684:	abc18513          	addi	a0,gp,-1348 # 200004d4 <beep_obj>
    1688:	117010ef          	jal	ra,2f9e <led_set_mode>
    168c:	abc18513          	addi	a0,gp,-1348 # 200004d4 <beep_obj>
    1690:	1cf010ef          	jal	ra,305e <led_start>
    1694:	a1048613          	addi	a2,s1,-1520
    1698:	458d                	li	a1,3
    169a:	1c418513          	addi	a0,gp,452 # 20000bdc <led_obj_off_red>
    169e:	101010ef          	jal	ra,2f9e <led_set_mode>
    16a2:	1c418513          	addi	a0,gp,452 # 20000bdc <led_obj_off_red>
    16a6:	1b9010ef          	jal	ra,305e <led_start>
    16aa:	aabfe06f          	j	154 <__riscv_restore_0>

000016ae <led_moto_fail_start>:
    16ae:	a83fe2ef          	jal	t0,130 <__riscv_save_0>
    16b2:	000064b7          	lui	s1,0x6
    16b6:	94448613          	addi	a2,s1,-1724 # 5944 <_read+0x3cc>
    16ba:	0ff00593          	li	a1,255
    16be:	abc18513          	addi	a0,gp,-1348 # 200004d4 <beep_obj>
    16c2:	0dd010ef          	jal	ra,2f9e <led_set_mode>
    16c6:	abc18513          	addi	a0,gp,-1348 # 200004d4 <beep_obj>
    16ca:	195010ef          	jal	ra,305e <led_start>
    16ce:	94448613          	addi	a2,s1,-1724
    16d2:	0ff00593          	li	a1,255
    16d6:	1c418513          	addi	a0,gp,452 # 20000bdc <led_obj_off_red>
    16da:	0c5010ef          	jal	ra,2f9e <led_set_mode>
    16de:	1c418513          	addi	a0,gp,452 # 20000bdc <led_obj_off_red>
    16e2:	17d010ef          	jal	ra,305e <led_start>
    16e6:	a6ffe06f          	j	154 <__riscv_restore_0>

000016ea <led_master_lost_start>:
    16ea:	a47fe2ef          	jal	t0,130 <__riscv_save_0>
    16ee:	000064b7          	lui	s1,0x6
    16f2:	a2c48613          	addi	a2,s1,-1492 # 5a2c <_read+0x4b4>
    16f6:	0ff00593          	li	a1,255
    16fa:	c2418513          	addi	a0,gp,-988 # 2000063c <beep_obj_loss>
    16fe:	0a1010ef          	jal	ra,2f9e <led_set_mode>
    1702:	c2418513          	addi	a0,gp,-988 # 2000063c <beep_obj_loss>
    1706:	159010ef          	jal	ra,305e <led_start>
    170a:	a2c48613          	addi	a2,s1,-1492
    170e:	0ff00593          	li	a1,255
    1712:	05c18513          	addi	a0,gp,92 # 20000a74 <led_obj_loss_red>
    1716:	089010ef          	jal	ra,2f9e <led_set_mode>
    171a:	05c18513          	addi	a0,gp,92 # 20000a74 <led_obj_loss_red>
    171e:	141010ef          	jal	ra,305e <led_start>
    1722:	a33fe06f          	j	154 <__riscv_restore_0>

00001726 <led_water_alarm_start>:
    1726:	a0bfe2ef          	jal	t0,130 <__riscv_save_0>
    172a:	000064b7          	lui	s1,0x6
    172e:	a2448613          	addi	a2,s1,-1500 # 5a24 <_read+0x4ac>
    1732:	0ff00593          	li	a1,255
    1736:	abc18513          	addi	a0,gp,-1348 # 200004d4 <beep_obj>
    173a:	065010ef          	jal	ra,2f9e <led_set_mode>
    173e:	abc18513          	addi	a0,gp,-1348 # 200004d4 <beep_obj>
    1742:	11d010ef          	jal	ra,305e <led_start>
    1746:	a2448613          	addi	a2,s1,-1500
    174a:	0ff00593          	li	a1,255
    174e:	1c418513          	addi	a0,gp,452 # 20000bdc <led_obj_off_red>
    1752:	04d010ef          	jal	ra,2f9e <led_set_mode>
    1756:	1c418513          	addi	a0,gp,452 # 20000bdc <led_obj_off_red>
    175a:	105010ef          	jal	ra,305e <led_start>
    175e:	9f7fe06f          	j	154 <__riscv_restore_0>

00001762 <beep_stop>:
    1762:	9cffe2ef          	jal	t0,130 <__riscv_save_0>
    1766:	c2418513          	addi	a0,gp,-988 # 2000063c <beep_obj_loss>
    176a:	11d010ef          	jal	ra,3086 <led_stop>
    176e:	abc18513          	addi	a0,gp,-1348 # 200004d4 <beep_obj>
    1772:	115010ef          	jal	ra,3086 <led_stop>
    1776:	9dffe06f          	j	154 <__riscv_restore_0>

0000177a <beep_key_down>:
    177a:	9b7fe2ef          	jal	t0,130 <__riscv_save_0>
    177e:	d8c18513          	addi	a0,gp,-628 # 200007a4 <beep_obj_once>
    1782:	0dd010ef          	jal	ra,305e <led_start>
    1786:	32c18513          	addi	a0,gp,812 # 20000d44 <led_obj_off_red_once>
    178a:	0d5010ef          	jal	ra,305e <led_start>
    178e:	9c7fe06f          	j	154 <__riscv_restore_0>

00001792 <beep_once>:
    1792:	99ffe2ef          	jal	t0,130 <__riscv_save_0>
    1796:	d8c18513          	addi	a0,gp,-628 # 200007a4 <beep_obj_once>
    179a:	0c5010ef          	jal	ra,305e <led_start>
    179e:	9b7fe06f          	j	154 <__riscv_restore_0>

000017a2 <led_valve_on_pause>:
    17a2:	98ffe2ef          	jal	t0,130 <__riscv_save_0>
    17a6:	5fc18513          	addi	a0,gp,1532 # 20001014 <led_obj_on_green>
    17aa:	0dd010ef          	jal	ra,3086 <led_stop>
    17ae:	4705                	li	a4,1
    17b0:	86e18223          	sb	a4,-1948(gp) # 2000027c <led_valve_on_pause_flag>
    17b4:	9a1fe06f          	j	154 <__riscv_restore_0>

000017b8 <led_valve_on_resume>:
    17b8:	979fe2ef          	jal	t0,130 <__riscv_save_0>
    17bc:	86018223          	sb	zero,-1948(gp) # 2000027c <led_valve_on_pause_flag>
    17c0:	4d7010ef          	jal	ra,3496 <get_valve_status>
    17c4:	c509                	beqz	a0,17ce <led_valve_on_resume+0x16>
    17c6:	5fc18513          	addi	a0,gp,1532 # 20001014 <led_obj_on_green>
    17ca:	095010ef          	jal	ra,305e <led_start>
    17ce:	987fe06f          	j	154 <__riscv_restore_0>

000017d2 <led_ntc_alarm>:
    17d2:	945fe2ef          	jal	t0,116 <__riscv_save_4>
    17d6:	00006437          	lui	s0,0x6
    17da:	97840613          	addi	a2,s0,-1672 # 5978 <_read+0x400>
    17de:	abc18513          	addi	a0,gp,-1348 # 200004d4 <beep_obj>
    17e2:	0ff00593          	li	a1,255
    17e6:	7b8010ef          	jal	ra,2f9e <led_set_mode>
    17ea:	97840613          	addi	a2,s0,-1672
    17ee:	1c418513          	addi	a0,gp,452 # 20000bdc <led_obj_off_red>
    17f2:	0ff00593          	li	a1,255
    17f6:	7a8010ef          	jal	ra,2f9e <led_set_mode>
    17fa:	97840613          	addi	a2,s0,-1672
    17fe:	0ff00593          	li	a1,255
    1802:	5fc18513          	addi	a0,gp,1532 # 20001014 <led_obj_on_green>
    1806:	798010ef          	jal	ra,2f9e <led_set_mode>
    180a:	1c418513          	addi	a0,gp,452 # 20000bdc <led_obj_off_red>
    180e:	051010ef          	jal	ra,305e <led_start>
    1812:	5fc18513          	addi	a0,gp,1532 # 20001014 <led_obj_on_green>
    1816:	049010ef          	jal	ra,305e <led_start>
    181a:	abc18513          	addi	a0,gp,-1348 # 200004d4 <beep_obj>
    181e:	041010ef          	jal	ra,305e <led_start>
    1822:	929fe06f          	j	14a <__riscv_restore_4>

00001826 <led_valve_on>:
    1826:	90bfe2ef          	jal	t0,130 <__riscv_save_0>
    182a:	1c418513          	addi	a0,gp,452 # 20000bdc <led_obj_off_red>
    182e:	059010ef          	jal	ra,3086 <led_stop>
    1832:	00006637          	lui	a2,0x6
    1836:	a1c60613          	addi	a2,a2,-1508 # 5a1c <_read+0x4a4>
    183a:	0ff00593          	li	a1,255
    183e:	5fc18513          	addi	a0,gp,1532 # 20001014 <led_obj_on_green>
    1842:	75c010ef          	jal	ra,2f9e <led_set_mode>
    1846:	5fc18513          	addi	a0,gp,1532 # 20001014 <led_obj_on_green>
    184a:	015010ef          	jal	ra,305e <led_start>
    184e:	907fe06f          	j	154 <__riscv_restore_0>

00001852 <led_valve_off>:
    1852:	8dffe2ef          	jal	t0,130 <__riscv_save_0>
    1856:	5fc18513          	addi	a0,gp,1532 # 20001014 <led_obj_on_green>
    185a:	02d010ef          	jal	ra,3086 <led_stop>
    185e:	8f7fe06f          	j	154 <__riscv_restore_0>

00001862 <led_warn_off>:
    1862:	8cffe2ef          	jal	t0,130 <__riscv_save_0>
    1866:	1c418513          	addi	a0,gp,452 # 20000bdc <led_obj_off_red>
    186a:	01d010ef          	jal	ra,3086 <led_stop>
    186e:	8e7fe06f          	j	154 <__riscv_restore_0>

00001872 <led_loss_off>:
    1872:	8bffe2ef          	jal	t0,130 <__riscv_save_0>
    1876:	05c18513          	addi	a0,gp,92 # 20000a74 <led_obj_loss_red>
    187a:	00d010ef          	jal	ra,3086 <led_stop>
    187e:	8d7fe06f          	j	154 <__riscv_restore_0>

00001882 <led_init>:
    1882:	895fe2ef          	jal	t0,116 <__riscv_save_4>
    1886:	1141                	addi	sp,sp,-16
    1888:	4585                	li	a1,1
    188a:	4521                	li	a0,8
    188c:	4d0020ef          	jal	ra,3d5c <RCC_APB2PeriphClockCmd>
    1890:	40011437          	lui	s0,0x40011
    1894:	4941                	li	s2,16
    1896:	4485                	li	s1,1
    1898:	04000793          	li	a5,64
    189c:	004c                	addi	a1,sp,4
    189e:	c0040513          	addi	a0,s0,-1024 # 40010c00 <_eusrstack+0x2000bc00>
    18a2:	c23e                	sw	a5,4(sp)
    18a4:	c64a                	sw	s2,12(sp)
    18a6:	c426                	sw	s1,8(sp)
    18a8:	7c5010ef          	jal	ra,386c <GPIO_Init>
    18ac:	4789                	li	a5,2
    18ae:	004c                	addi	a1,sp,4
    18b0:	c0040513          	addi	a0,s0,-1024
    18b4:	c23e                	sw	a5,4(sp)
    18b6:	c64a                	sw	s2,12(sp)
    18b8:	c426                	sw	s1,8(sp)
    18ba:	7b3010ef          	jal	ra,386c <GPIO_Init>
    18be:	c0040513          	addi	a0,s0,-1024
    18c2:	4605                	li	a2,1
    18c4:	04000593          	li	a1,64
    18c8:	11c020ef          	jal	ra,39e4 <GPIO_WriteBit>
    18cc:	4605                	li	a2,1
    18ce:	c0040513          	addi	a0,s0,-1024
    18d2:	4589                	li	a1,2
    18d4:	110020ef          	jal	ra,39e4 <GPIO_WriteBit>
    18d8:	08000793          	li	a5,128
    18dc:	004c                	addi	a1,sp,4
    18de:	c0040513          	addi	a0,s0,-1024
    18e2:	c23e                	sw	a5,4(sp)
    18e4:	c64a                	sw	s2,12(sp)
    18e6:	c426                	sw	s1,8(sp)
    18e8:	785010ef          	jal	ra,386c <GPIO_Init>
    18ec:	c0040513          	addi	a0,s0,-1024
    18f0:	4601                	li	a2,0
    18f2:	08000593          	li	a1,128
    18f6:	0ee020ef          	jal	ra,39e4 <GPIO_WriteBit>
    18fa:	00001937          	lui	s2,0x1
    18fe:	000014b7          	lui	s1,0x1
    1902:	4681                	li	a3,0
    1904:	5ec90613          	addi	a2,s2,1516 # 15ec <off_red_off>
    1908:	60648593          	addi	a1,s1,1542 # 1606 <off_red_on>
    190c:	1c418513          	addi	a0,gp,452 # 20000bdc <led_obj_off_red>
    1910:	664010ef          	jal	ra,2f74 <led_create>
    1914:	000069b7          	lui	s3,0x6
    1918:	93c98613          	addi	a2,s3,-1732 # 593c <_read+0x3c4>
    191c:	1c418513          	addi	a0,gp,452 # 20000bdc <led_obj_off_red>
    1920:	0ff00593          	li	a1,255
    1924:	67a010ef          	jal	ra,2f9e <led_set_mode>
    1928:	4681                	li	a3,0
    192a:	5ec90613          	addi	a2,s2,1516
    192e:	60648593          	addi	a1,s1,1542
    1932:	05c18513          	addi	a0,gp,92 # 20000a74 <led_obj_loss_red>
    1936:	00006437          	lui	s0,0x6
    193a:	63a010ef          	jal	ra,2f74 <led_create>
    193e:	a1040613          	addi	a2,s0,-1520 # 5a10 <_read+0x498>
    1942:	05c18513          	addi	a0,gp,92 # 20000a74 <led_obj_loss_red>
    1946:	0ff00593          	li	a1,255
    194a:	654010ef          	jal	ra,2f9e <led_set_mode>
    194e:	4681                	li	a3,0
    1950:	5ec90613          	addi	a2,s2,1516
    1954:	60648593          	addi	a1,s1,1542
    1958:	32c18513          	addi	a0,gp,812 # 20000d44 <led_obj_off_red_once>
    195c:	618010ef          	jal	ra,2f74 <led_create>
    1960:	93c98613          	addi	a2,s3,-1732
    1964:	32c18513          	addi	a0,gp,812 # 20000d44 <led_obj_off_red_once>
    1968:	4585                	li	a1,1
    196a:	634010ef          	jal	ra,2f9e <led_set_mode>
    196e:	4681                	li	a3,0
    1970:	5ec90613          	addi	a2,s2,1516
    1974:	60648593          	addi	a1,s1,1542
    1978:	49418513          	addi	a0,gp,1172 # 20000eac <led_obj_off_red_three>
    197c:	5f8010ef          	jal	ra,2f74 <led_create>
    1980:	a1040613          	addi	a2,s0,-1520
    1984:	49418513          	addi	a0,gp,1172 # 20000eac <led_obj_off_red_three>
    1988:	458d                	li	a1,3
    198a:	614010ef          	jal	ra,2f9e <led_set_mode>
    198e:	00001637          	lui	a2,0x1
    1992:	000015b7          	lui	a1,0x1
    1996:	4681                	li	a3,0
    1998:	5fc18513          	addi	a0,gp,1532 # 20001014 <led_obj_on_green>
    199c:	5d460613          	addi	a2,a2,1492 # 15d4 <on_green_off>
    19a0:	62058593          	addi	a1,a1,1568 # 1620 <on_green_on>
    19a4:	5d0010ef          	jal	ra,2f74 <led_create>
    19a8:	a1040613          	addi	a2,s0,-1520
    19ac:	5fc18513          	addi	a0,gp,1532 # 20001014 <led_obj_on_green>
    19b0:	458d                	li	a1,3
    19b2:	5ec010ef          	jal	ra,2f9e <led_set_mode>
    19b6:	00001937          	lui	s2,0x1
    19ba:	000014b7          	lui	s1,0x1
    19be:	4681                	li	a3,0
    19c0:	5a090613          	addi	a2,s2,1440 # 15a0 <beep_close>
    19c4:	5ba48593          	addi	a1,s1,1466 # 15ba <beep_on>
    19c8:	abc18513          	addi	a0,gp,-1348 # 200004d4 <beep_obj>
    19cc:	5a8010ef          	jal	ra,2f74 <led_create>
    19d0:	a1040613          	addi	a2,s0,-1520
    19d4:	abc18513          	addi	a0,gp,-1348 # 200004d4 <beep_obj>
    19d8:	0ff00593          	li	a1,255
    19dc:	5c2010ef          	jal	ra,2f9e <led_set_mode>
    19e0:	4681                	li	a3,0
    19e2:	5a090613          	addi	a2,s2,1440
    19e6:	5ba48593          	addi	a1,s1,1466
    19ea:	c2418513          	addi	a0,gp,-988 # 2000063c <beep_obj_loss>
    19ee:	586010ef          	jal	ra,2f74 <led_create>
    19f2:	a1040613          	addi	a2,s0,-1520
    19f6:	c2418513          	addi	a0,gp,-988 # 2000063c <beep_obj_loss>
    19fa:	0ff00593          	li	a1,255
    19fe:	5a0010ef          	jal	ra,2f9e <led_set_mode>
    1a02:	4681                	li	a3,0
    1a04:	5a090613          	addi	a2,s2,1440
    1a08:	5ba48593          	addi	a1,s1,1466
    1a0c:	d8c18513          	addi	a0,gp,-628 # 200007a4 <beep_obj_once>
    1a10:	564010ef          	jal	ra,2f74 <led_create>
    1a14:	93c98613          	addi	a2,s3,-1732
    1a18:	d8c18513          	addi	a0,gp,-628 # 200007a4 <beep_obj_once>
    1a1c:	4585                	li	a1,1
    1a1e:	580010ef          	jal	ra,2f9e <led_set_mode>
    1a22:	4681                	li	a3,0
    1a24:	5a090613          	addi	a2,s2,1440
    1a28:	5ba48593          	addi	a1,s1,1466
    1a2c:	ef418513          	addi	a0,gp,-268 # 2000090c <beep_obj_three>
    1a30:	544010ef          	jal	ra,2f74 <led_create>
    1a34:	a1040613          	addi	a2,s0,-1520
    1a38:	458d                	li	a1,3
    1a3a:	ef418513          	addi	a0,gp,-268 # 2000090c <beep_obj_three>
    1a3e:	560010ef          	jal	ra,2f9e <led_set_mode>
    1a42:	0141                	addi	sp,sp,16
    1a44:	f06fe06f          	j	14a <__riscv_restore_4>

00001a48 <my_rcc>:
    1a48:	ee8fe2ef          	jal	t0,130 <__riscv_save_0>
    1a4c:	00226537          	lui	a0,0x226
    1a50:	4585                	li	a1,1
    1a52:	a1f50513          	addi	a0,a0,-1505 # 225a1f <_data_lma+0x21f98b>
    1a56:	306020ef          	jal	ra,3d5c <RCC_APB2PeriphClockCmd>
    1a5a:	efafe06f          	j	154 <__riscv_restore_0>

00001a5e <IWDG_Feed_Init>:
    1a5e:	ed2fe2ef          	jal	t0,130 <__riscv_save_0>
    1a62:	842a                	mv	s0,a0
    1a64:	6515                	lui	a0,0x5
    1a66:	1141                	addi	sp,sp,-16
    1a68:	55550513          	addi	a0,a0,1365 # 5555 <_fstat+0xd>
    1a6c:	c62e                	sw	a1,12(sp)
    1a6e:	222020ef          	jal	ra,3c90 <IWDG_WriteAccessCmd>
    1a72:	0ff47513          	andi	a0,s0,255
    1a76:	222020ef          	jal	ra,3c98 <IWDG_SetPrescaler>
    1a7a:	45b2                	lw	a1,12(sp)
    1a7c:	852e                	mv	a0,a1
    1a7e:	222020ef          	jal	ra,3ca0 <IWDG_SetReload>
    1a82:	226020ef          	jal	ra,3ca8 <IWDG_ReloadCounter>
    1a86:	230020ef          	jal	ra,3cb6 <IWDG_Enable>
    1a8a:	0141                	addi	sp,sp,16
    1a8c:	ec8fe06f          	j	154 <__riscv_restore_0>

00001a90 <main>:
    1a90:	ea0fe2ef          	jal	t0,130 <__riscv_save_0>
    1a94:	4505                	li	a0,1
    1a96:	22e020ef          	jal	ra,3cc4 <NVIC_PriorityGroupConfig>
    1a9a:	6f8010ef          	jal	ra,3192 <SystemCoreClockUpdate>
    1a9e:	508020ef          	jal	ra,3fa6 <Delay_Init>
    1aa2:	375d                	jal	1a48 <my_rcc>
    1aa4:	000e1537          	lui	a0,0xe1
    1aa8:	590020ef          	jal	ra,4038 <USART_Printf_Init>
    1aac:	195000ef          	jal	ra,2440 <GPIO_Toggle_INIT>
    1ab0:	445010ef          	jal	ra,36f4 <warning_init>
    1ab4:	9c7ff0ef          	jal	ra,147a <button_init>
    1ab8:	dcbff0ef          	jal	ra,1882 <led_init>
    1abc:	281010ef          	jal	ra,353c <valve_init>
    1ac0:	8181a583          	lw	a1,-2024(gp) # 20000230 <SystemCoreClock>
    1ac4:	00006537          	lui	a0,0x6
    1ac8:	a4050513          	addi	a0,a0,-1472 # 5a40 <_read+0x4c8>
    1acc:	6e6020ef          	jal	ra,41b2 <iprintf>
    1ad0:	593010ef          	jal	ra,3862 <DBGMCU_GetCHIPID>
    1ad4:	85aa                	mv	a1,a0
    1ad6:	00006537          	lui	a0,0x6
    1ada:	a5050513          	addi	a0,a0,-1456 # 5a50 <_read+0x4d8>
    1ade:	6d4020ef          	jal	ra,41b2 <iprintf>
    1ae2:	00006537          	lui	a0,0x6
    1ae6:	a6050513          	addi	a0,a0,-1440 # 5a60 <_read+0x4e8>
    1aea:	7dc020ef          	jal	ra,42c6 <puts>
    1aee:	86bfe0ef          	jal	ra,358 <PD_Init>
    1af2:	02f00593          	li	a1,47
    1af6:	3e700513          	li	a0,999
    1afa:	005000ef          	jal	ra,22fe <TIM1_Init>
    1afe:	02f00593          	li	a1,47
    1b02:	3e700513          	li	a0,999
    1b06:	05b000ef          	jal	ra,2360 <TIM2_Init>
    1b0a:	6551                	lui	a0,0x14
    1b0c:	4589                	li	a1,2
    1b0e:	88050513          	addi	a0,a0,-1920 # 13880 <_data_lma+0xd7ec>
    1b12:	282d                	jal	1b4c <IIC_Init>
    1b14:	21b9                	jal	1f62 <my_SC8726_Init>
    1b16:	615000ef          	jal	ra,292a <my_SPI_Master_Init>
    1b1a:	6585                	lui	a1,0x1
    1b1c:	fa058593          	addi	a1,a1,-96 # fa0 <PD_Main_Proc+0x3e2>
    1b20:	4515                	li	a0,5
    1b22:	f3dff0ef          	jal	ra,1a5e <IWDG_Feed_Init>
    1b26:	182020ef          	jal	ra,3ca8 <IWDG_ReloadCounter>
    1b2a:	239000ef          	jal	ra,2562 <my_TIM_Handle>
    1b2e:	26d000ef          	jal	ra,259a <my_PD_Handle>
    1b32:	71a000ef          	jal	ra,224c <my_SC8726_Handle>
    1b36:	06c010ef          	jal	ra,2ba2 <my_spi_handle>
    1b3a:	2fb000ef          	jal	ra,2634 <my_valve_check_Handle>
    1b3e:	fdaff0ef          	jal	ra,1318 <button_handle>
    1b42:	affff0ef          	jal	ra,1640 <led_handle>
    1b46:	1b5010ef          	jal	ra,34fa <valve_handle>
    1b4a:	bff1                	j	1b26 <main+0x96>

00001b4c <IIC_Init>:
    1b4c:	dcafe2ef          	jal	t0,116 <__riscv_save_4>
    1b50:	1101                	addi	sp,sp,-32
    1b52:	89aa                	mv	s3,a0
    1b54:	892e                	mv	s2,a1
    1b56:	4541                	li	a0,16
    1b58:	4585                	li	a1,1
    1b5a:	c202                	sw	zero,4(sp)
    1b5c:	c402                	sw	zero,8(sp)
    1b5e:	c602                	sw	zero,12(sp)
    1b60:	c802                	sw	zero,16(sp)
    1b62:	ca02                	sw	zero,20(sp)
    1b64:	cc02                	sw	zero,24(sp)
    1b66:	ce02                	sw	zero,28(sp)
    1b68:	1f4020ef          	jal	ra,3d5c <RCC_APB2PeriphClockCmd>
    1b6c:	4585                	li	a1,1
    1b6e:	00200537          	lui	a0,0x200
    1b72:	208020ef          	jal	ra,3d7a <RCC_APB1PeriphClockCmd>
    1b76:	4585                	li	a1,1
    1b78:	4505                	li	a0,1
    1b7a:	1e2020ef          	jal	ra,3d5c <RCC_APB2PeriphClockCmd>
    1b7e:	08300537          	lui	a0,0x8300
    1b82:	4585                	li	a1,1
    1b84:	40050513          	addi	a0,a0,1024 # 8300400 <_data_lma+0x82fa36c>
    1b88:	671010ef          	jal	ra,39f8 <GPIO_PinRemapConfig>
    1b8c:	08020537          	lui	a0,0x8020
    1b90:	4585                	li	a1,1
    1b92:	0551                	addi	a0,a0,20
    1b94:	665010ef          	jal	ra,39f8 <GPIO_PinRemapConfig>
    1b98:	000407b7          	lui	a5,0x40
    1b9c:	44e1                	li	s1,24
    1b9e:	4405                	li	s0,1
    1ba0:	004c                	addi	a1,sp,4
    1ba2:	40011537          	lui	a0,0x40011
    1ba6:	c23e                	sw	a5,4(sp)
    1ba8:	c626                	sw	s1,12(sp)
    1baa:	c422                	sw	s0,8(sp)
    1bac:	4c1010ef          	jal	ra,386c <GPIO_Init>
    1bb0:	000807b7          	lui	a5,0x80
    1bb4:	004c                	addi	a1,sp,4
    1bb6:	40011537          	lui	a0,0x40011
    1bba:	c23e                	sw	a5,4(sp)
    1bbc:	c626                	sw	s1,12(sp)
    1bbe:	c422                	sw	s0,8(sp)
    1bc0:	4ad010ef          	jal	ra,386c <GPIO_Init>
    1bc4:	400007b7          	lui	a5,0x40000
    1bc8:	40005437          	lui	s0,0x40005
    1bcc:	ca3e                	sw	a5,20(sp)
    1bce:	40000793          	li	a5,1024
    1bd2:	85fc                	sh	a5,26(sp)
    1bd4:	080c                	addi	a1,sp,16
    1bd6:	6791                	lui	a5,0x4
    1bd8:	40040513          	addi	a0,s0,1024 # 40005400 <_eusrstack+0x20000400>
    1bdc:	86fc                	sh	a5,28(sp)
    1bde:	c84e                	sw	s3,16(sp)
    1be0:	01211c23          	sh	s2,24(sp)
    1be4:	6b5010ef          	jal	ra,3a98 <I2C_Init>
    1be8:	4585                	li	a1,1
    1bea:	40040513          	addi	a0,s0,1024
    1bee:	779010ef          	jal	ra,3b66 <I2C_Cmd>
    1bf2:	6105                	addi	sp,sp,32
    1bf4:	d56fe06f          	j	14a <__riscv_restore_4>

00001bf8 <my_i2c_read_addr>:
    1bf8:	76418793          	addi	a5,gp,1892 # 2000117c <my_i2c_control>
    1bfc:	00078023          	sb	zero,0(a5) # 4000 <Delay_Us+0x34>
    1c00:	b3ac                	sb	a1,3(a5)
    1c02:	b388                	sb	a0,1(a5)
    1c04:	4705                	li	a4,1
    1c06:	a3d8                	sb	a4,4(a5)
    1c08:	c790                	sw	a2,8(a5)
    1c0a:	00078823          	sb	zero,16(a5)
    1c0e:	8082                	ret

00001c10 <my_i2c_write_addr>:
    1c10:	76418793          	addi	a5,gp,1892 # 2000117c <my_i2c_control>
    1c14:	4729                	li	a4,10
    1c16:	a398                	sb	a4,0(a5)
    1c18:	a3a8                	sb	a0,2(a5)
    1c1a:	a3cc                	sb	a1,4(a5)
    1c1c:	c7d0                	sw	a2,12(a5)
    1c1e:	00078823          	sb	zero,16(a5)
    1c22:	8082                	ret

00001c24 <I2C1_EV_IRQHandler>:
    1c24:	1141                	addi	sp,sp,-16
    1c26:	c426                	sw	s1,8(sp)
    1c28:	c24a                	sw	s2,4(sp)
    1c2a:	400054b7          	lui	s1,0x40005
    1c2e:	02000937          	lui	s2,0x2000
    1c32:	00190593          	addi	a1,s2,1 # 2000001 <_data_lma+0x1ff9f6d>
    1c36:	40048513          	addi	a0,s1,1024 # 40005400 <_eusrstack+0x20000400>
    1c3a:	c622                	sw	s0,12(sp)
    1c3c:	028020ef          	jal	ra,3c64 <I2C_GetITStatus>
    1c40:	76418413          	addi	s0,gp,1892 # 2000117c <my_i2c_control>
    1c44:	cd21                	beqz	a0,1c9c <I2C1_EV_IRQHandler+0x78>
    1c46:	201c                	lbu	a5,0(s0)
    1c48:	0ff7f793          	andi	a5,a5,255
    1c4c:	c789                	beqz	a5,1c56 <I2C1_EV_IRQHandler+0x32>
    1c4e:	201c                	lbu	a5,0(s0)
    1c50:	4729                	li	a4,10
    1c52:	02f71663          	bne	a4,a5,1c7e <I2C1_EV_IRQHandler+0x5a>
    1c56:	201c                	lbu	a5,0(s0)
    1c58:	40005537          	lui	a0,0x40005
    1c5c:	4601                	li	a2,0
    1c5e:	0785                	addi	a5,a5,1
    1c60:	0ff7f793          	andi	a5,a5,255
    1c64:	a01c                	sb	a5,0(s0)
    1c66:	0c400593          	li	a1,196
    1c6a:	40050513          	addi	a0,a0,1024 # 40005400 <_eusrstack+0x20000400>
    1c6e:	77d010ef          	jal	ra,3bea <I2C_Send7bitAddress>
    1c72:	4432                	lw	s0,12(sp)
    1c74:	44a2                	lw	s1,8(sp)
    1c76:	4912                	lw	s2,4(sp)
    1c78:	0141                	addi	sp,sp,16
    1c7a:	30200073          	mret
    1c7e:	201c                	lbu	a5,0(s0)
    1c80:	470d                	li	a4,3
    1c82:	fef718e3          	bne	a4,a5,1c72 <I2C1_EV_IRQHandler+0x4e>
    1c86:	201c                	lbu	a5,0(s0)
    1c88:	4605                	li	a2,1
    1c8a:	0c400593          	li	a1,196
    1c8e:	0785                	addi	a5,a5,1
    1c90:	0ff7f793          	andi	a5,a5,255
    1c94:	a01c                	sb	a5,0(s0)
    1c96:	40048513          	addi	a0,s1,1024
    1c9a:	bfd1                	j	1c6e <I2C1_EV_IRQHandler+0x4a>
    1c9c:	00290593          	addi	a1,s2,2
    1ca0:	40048513          	addi	a0,s1,1024
    1ca4:	7c1010ef          	jal	ra,3c64 <I2C_GetITStatus>
    1ca8:	cd39                	beqz	a0,1d06 <I2C1_EV_IRQHandler+0xe2>
    1caa:	201c                	lbu	a5,0(s0)
    1cac:	4705                	li	a4,1
    1cae:	00f71463          	bne	a4,a5,1cb6 <I2C1_EV_IRQHandler+0x92>
    1cb2:	4789                	li	a5,2
    1cb4:	a01c                	sb	a5,0(s0)
    1cb6:	201c                	lbu	a5,0(s0)
    1cb8:	4711                	li	a4,4
    1cba:	02f71663          	bne	a4,a5,1ce6 <I2C1_EV_IRQHandler+0xc2>
    1cbe:	4795                	li	a5,5
    1cc0:	a01c                	sb	a5,0(s0)
    1cc2:	303c                	lbu	a5,3(s0)
    1cc4:	4705                	li	a4,1
    1cc6:	02f71063          	bne	a4,a5,1ce6 <I2C1_EV_IRQHandler+0xc2>
    1cca:	400054b7          	lui	s1,0x40005
    1cce:	6585                	lui	a1,0x1
    1cd0:	80058593          	addi	a1,a1,-2048 # 800 <PD_Phy_SendPack+0x5a>
    1cd4:	40048513          	addi	a0,s1,1024 # 40005400 <_eusrstack+0x20000400>
    1cd8:	739010ef          	jal	ra,3c10 <I2C_NACKPositionConfig>
    1cdc:	4585                	li	a1,1
    1cde:	40048513          	addi	a0,s1,1024
    1ce2:	6b7010ef          	jal	ra,3b98 <I2C_GenerateSTOP>
    1ce6:	201c                	lbu	a5,0(s0)
    1ce8:	472d                	li	a4,11
    1cea:	00f71463          	bne	a4,a5,1cf2 <I2C1_EV_IRQHandler+0xce>
    1cee:	47b1                	li	a5,12
    1cf0:	a01c                	sb	a5,0(s0)
    1cf2:	40005537          	lui	a0,0x40005
    1cf6:	45e1                	li	a1,24
    1cf8:	40050513          	addi	a0,a0,1024 # 40005400 <_eusrstack+0x20000400>
    1cfc:	000402a3          	sb	zero,5(s0)
    1d00:	6fd010ef          	jal	ra,3bfc <I2C_ReadRegister>
    1d04:	b7bd                	j	1c72 <I2C1_EV_IRQHandler+0x4e>
    1d06:	06000937          	lui	s2,0x6000
    1d0a:	08090593          	addi	a1,s2,128 # 6000080 <_data_lma+0x5ff9fec>
    1d0e:	40048513          	addi	a0,s1,1024
    1d12:	753010ef          	jal	ra,3c64 <I2C_GetITStatus>
    1d16:	c151                	beqz	a0,1d9a <I2C1_EV_IRQHandler+0x176>
    1d18:	201c                	lbu	a5,0(s0)
    1d1a:	4709                	li	a4,2
    1d1c:	02f71f63          	bne	a4,a5,1d5a <I2C1_EV_IRQHandler+0x136>
    1d20:	305c                	lbu	a5,5(s0)
    1d22:	0ff7f793          	andi	a5,a5,255
    1d26:	ef81                	bnez	a5,1d3e <I2C1_EV_IRQHandler+0x11a>
    1d28:	300c                	lbu	a1,1(s0)
    1d2a:	40048513          	addi	a0,s1,1024
    1d2e:	6b1010ef          	jal	ra,3bde <I2C_SendData>
    1d32:	305c                	lbu	a5,5(s0)
    1d34:	0785                	addi	a5,a5,1
    1d36:	0ff7f793          	andi	a5,a5,255
    1d3a:	b05c                	sb	a5,5(s0)
    1d3c:	bf1d                	j	1c72 <I2C1_EV_IRQHandler+0x4e>
    1d3e:	4585                	li	a1,1
    1d40:	40048513          	addi	a0,s1,1024
    1d44:	63b010ef          	jal	ra,3b7e <I2C_GenerateSTART>
    1d48:	478d                	li	a5,3
    1d4a:	0ff00593          	li	a1,255
    1d4e:	40048513          	addi	a0,s1,1024
    1d52:	a01c                	sb	a5,0(s0)
    1d54:	68b010ef          	jal	ra,3bde <I2C_SendData>
    1d58:	bf29                	j	1c72 <I2C1_EV_IRQHandler+0x4e>
    1d5a:	201c                	lbu	a5,0(s0)
    1d5c:	4731                	li	a4,12
    1d5e:	00f71a63          	bne	a4,a5,1d72 <I2C1_EV_IRQHandler+0x14e>
    1d62:	202c                	lbu	a1,2(s0)
    1d64:	40048513          	addi	a0,s1,1024
    1d68:	677010ef          	jal	ra,3bde <I2C_SendData>
    1d6c:	47b5                	li	a5,13
    1d6e:	a01c                	sb	a5,0(s0)
    1d70:	b709                	j	1c72 <I2C1_EV_IRQHandler+0x4e>
    1d72:	201c                	lbu	a5,0(s0)
    1d74:	4735                	li	a4,13
    1d76:	eef71ee3          	bne	a4,a5,1c72 <I2C1_EV_IRQHandler+0x4e>
    1d7a:	305c                	lbu	a5,5(s0)
    1d7c:	2058                	lbu	a4,4(s0)
    1d7e:	00e7f763          	bgeu	a5,a4,1d8c <I2C1_EV_IRQHandler+0x168>
    1d82:	445c                	lw	a5,12(s0)
    1d84:	3058                	lbu	a4,5(s0)
    1d86:	97ba                	add	a5,a5,a4
    1d88:	238c                	lbu	a1,0(a5)
    1d8a:	b745                	j	1d2a <I2C1_EV_IRQHandler+0x106>
    1d8c:	4585                	li	a1,1
    1d8e:	40048513          	addi	a0,s1,1024
    1d92:	607010ef          	jal	ra,3b98 <I2C_GenerateSTOP>
    1d96:	57fd                	li	a5,-1
    1d98:	bf4d                	j	1d4a <I2C1_EV_IRQHandler+0x126>
    1d9a:	04090593          	addi	a1,s2,64
    1d9e:	40048513          	addi	a0,s1,1024
    1da2:	6c3010ef          	jal	ra,3c64 <I2C_GetITStatus>
    1da6:	c12d                	beqz	a0,1e08 <I2C1_EV_IRQHandler+0x1e4>
    1da8:	201c                	lbu	a5,0(s0)
    1daa:	4715                	li	a4,5
    1dac:	ecf713e3          	bne	a4,a5,1c72 <I2C1_EV_IRQHandler+0x4e>
    1db0:	305c                	lbu	a5,5(s0)
    1db2:	3038                	lbu	a4,3(s0)
    1db4:	eae7ffe3          	bgeu	a5,a4,1c72 <I2C1_EV_IRQHandler+0x4e>
    1db8:	00842903          	lw	s2,8(s0)
    1dbc:	305c                	lbu	a5,5(s0)
    1dbe:	40048513          	addi	a0,s1,1024
    1dc2:	993e                	add	s2,s2,a5
    1dc4:	61f010ef          	jal	ra,3be2 <I2C_ReceiveData>
    1dc8:	00a90023          	sb	a0,0(s2)
    1dcc:	305c                	lbu	a5,5(s0)
    1dce:	0785                	addi	a5,a5,1
    1dd0:	0ff7f793          	andi	a5,a5,255
    1dd4:	b05c                	sb	a5,5(s0)
    1dd6:	3058                	lbu	a4,5(s0)
    1dd8:	303c                	lbu	a5,3(s0)
    1dda:	17fd                	addi	a5,a5,-1
    1ddc:	00e79e63          	bne	a5,a4,1df8 <I2C1_EV_IRQHandler+0x1d4>
    1de0:	6585                	lui	a1,0x1
    1de2:	80058593          	addi	a1,a1,-2048 # 800 <PD_Phy_SendPack+0x5a>
    1de6:	40048513          	addi	a0,s1,1024
    1dea:	627010ef          	jal	ra,3c10 <I2C_NACKPositionConfig>
    1dee:	4585                	li	a1,1
    1df0:	40048513          	addi	a0,s1,1024
    1df4:	5a5010ef          	jal	ra,3b98 <I2C_GenerateSTOP>
    1df8:	3058                	lbu	a4,5(s0)
    1dfa:	303c                	lbu	a5,3(s0)
    1dfc:	0ff7f793          	andi	a5,a5,255
    1e00:	e6e799e3          	bne	a5,a4,1c72 <I2C1_EV_IRQHandler+0x4e>
    1e04:	57fd                	li	a5,-1
    1e06:	b7a5                	j	1d6e <I2C1_EV_IRQHandler+0x14a>
    1e08:	00006537          	lui	a0,0x6
    1e0c:	abc50513          	addi	a0,a0,-1348 # 5abc <_read+0x544>
    1e10:	4b6020ef          	jal	ra,42c6 <puts>
    1e14:	4144d583          	lhu	a1,1044(s1)
    1e18:	4184d603          	lhu	a2,1048(s1)
    1e1c:	2014                	lbu	a3,0(s0)
    1e1e:	00006537          	lui	a0,0x6
    1e22:	ad050513          	addi	a0,a0,-1328 # 5ad0 <_read+0x558>
    1e26:	38c020ef          	jal	ra,41b2 <iprintf>
    1e2a:	b5a1                	j	1c72 <I2C1_EV_IRQHandler+0x4e>

00001e2c <I2C1_ER_IRQHandler>:
    1e2c:	1141                	addi	sp,sp,-16
    1e2e:	c622                	sw	s0,12(sp)
    1e30:	c426                	sw	s1,8(sp)
    1e32:	40005437          	lui	s0,0x40005
    1e36:	010004b7          	lui	s1,0x1000
    1e3a:	40048593          	addi	a1,s1,1024 # 1000400 <_data_lma+0xffa36c>
    1e3e:	40040513          	addi	a0,s0,1024 # 40005400 <_eusrstack+0x20000400>
    1e42:	623010ef          	jal	ra,3c64 <I2C_GetITStatus>
    1e46:	cd09                	beqz	a0,1e60 <I2C1_ER_IRQHandler+0x34>
    1e48:	40040513          	addi	a0,s0,1024
    1e4c:	40048593          	addi	a1,s1,1024
    1e50:	635010ef          	jal	ra,3c84 <I2C_ClearITPendingBit>
    1e54:	00006537          	lui	a0,0x6
    1e58:	ab050513          	addi	a0,a0,-1360 # 5ab0 <_read+0x538>
    1e5c:	46a020ef          	jal	ra,42c6 <puts>
    1e60:	4432                	lw	s0,12(sp)
    1e62:	44a2                	lw	s1,8(sp)
    1e64:	0141                	addi	sp,sp,16
    1e66:	30200073          	mret

00001e6a <get_I2C_Status>:
    1e6a:	ac6fe2ef          	jal	t0,130 <__riscv_save_0>
    1e6e:	76418793          	addi	a5,gp,1892 # 2000117c <my_i2c_control>
    1e72:	2b9c                	lbu	a5,16(a5)
    1e74:	472d                	li	a4,11
    1e76:	0ff7f793          	andi	a5,a5,255
    1e7a:	06f76f63          	bltu	a4,a5,1ef8 <get_I2C_Status+0x8e>
    1e7e:	6719                	lui	a4,0x6
    1e80:	078a                	slli	a5,a5,0x2
    1e82:	a6870713          	addi	a4,a4,-1432 # 5a68 <_read+0x4f0>
    1e86:	97ba                	add	a5,a5,a4
    1e88:	439c                	lw	a5,0(a5)
    1e8a:	76418413          	addi	s0,gp,1892 # 2000117c <my_i2c_control>
    1e8e:	8782                	jr	a5
    1e90:	400054b7          	lui	s1,0x40005
    1e94:	000205b7          	lui	a1,0x20
    1e98:	40048513          	addi	a0,s1,1024 # 40005400 <_eusrstack+0x20000400>
    1e9c:	597010ef          	jal	ra,3c32 <I2C_GetFlagStatus>
    1ea0:	ed01                	bnez	a0,1eb8 <get_I2C_Status+0x4e>
    1ea2:	4789                	li	a5,2
    1ea4:	4585                	li	a1,1
    1ea6:	40048513          	addi	a0,s1,1024
    1eaa:	a81c                	sb	a5,16(s0)
    1eac:	4d3010ef          	jal	ra,3b7e <I2C_GenerateSTART>
    1eb0:	1f400793          	li	a5,500
    1eb4:	a83e                	sh	a5,18(s0)
    1eb6:	a089                	j	1ef8 <get_I2C_Status+0x8e>
    1eb8:	6785                	lui	a5,0x1
    1eba:	38878793          	addi	a5,a5,904 # 1388 <key_off_click_handle+0x1e>
    1ebe:	a83e                	sh	a5,18(s0)
    1ec0:	4785                	li	a5,1
    1ec2:	a81c                	sb	a5,16(s0)
    1ec4:	a815                	j	1ef8 <get_I2C_Status+0x8e>
    1ec6:	283e                	lhu	a5,18(s0)
    1ec8:	8471c703          	lbu	a4,-1977(gp) # 2000025f <Tmr_Ms_Dlt>
    1ecc:	02f77963          	bgeu	a4,a5,1efe <get_I2C_Status+0x94>
    1ed0:	283e                	lhu	a5,18(s0)
    1ed2:	8f99                	sub	a5,a5,a4
    1ed4:	07c2                	slli	a5,a5,0x10
    1ed6:	83c1                	srli	a5,a5,0x10
    1ed8:	a83e                	sh	a5,18(s0)
    1eda:	283e                	lhu	a5,18(s0)
    1edc:	07c2                	slli	a5,a5,0x10
    1ede:	83c1                	srli	a5,a5,0x10
    1ee0:	e399                	bnez	a5,1ee6 <get_I2C_Status+0x7c>
    1ee2:	47a9                	li	a5,10
    1ee4:	a81c                	sb	a5,16(s0)
    1ee6:	400054b7          	lui	s1,0x40005
    1eea:	000205b7          	lui	a1,0x20
    1eee:	40048513          	addi	a0,s1,1024 # 40005400 <_eusrstack+0x20000400>
    1ef2:	541010ef          	jal	ra,3c32 <I2C_GetFlagStatus>
    1ef6:	d555                	beqz	a0,1ea2 <get_I2C_Status+0x38>
    1ef8:	4501                	li	a0,0
    1efa:	a5afe06f          	j	154 <__riscv_restore_0>
    1efe:	00041923          	sh	zero,18(s0)
    1f02:	bfe1                	j	1eda <get_I2C_Status+0x70>
    1f04:	283e                	lhu	a5,18(s0)
    1f06:	8471c703          	lbu	a4,-1977(gp) # 2000025f <Tmr_Ms_Dlt>
    1f0a:	02f77463          	bgeu	a4,a5,1f32 <get_I2C_Status+0xc8>
    1f0e:	283e                	lhu	a5,18(s0)
    1f10:	8f99                	sub	a5,a5,a4
    1f12:	07c2                	slli	a5,a5,0x10
    1f14:	83c1                	srli	a5,a5,0x10
    1f16:	a83e                	sh	a5,18(s0)
    1f18:	283e                	lhu	a5,18(s0)
    1f1a:	07c2                	slli	a5,a5,0x10
    1f1c:	83c1                	srli	a5,a5,0x10
    1f1e:	e399                	bnez	a5,1f24 <get_I2C_Status+0xba>
    1f20:	47ad                	li	a5,11
    1f22:	a81c                	sb	a5,16(s0)
    1f24:	201c                	lbu	a5,0(s0)
    1f26:	0ff00713          	li	a4,255
    1f2a:	fcf717e3          	bne	a4,a5,1ef8 <get_I2C_Status+0x8e>
    1f2e:	478d                	li	a5,3
    1f30:	bf49                	j	1ec2 <get_I2C_Status+0x58>
    1f32:	00041923          	sh	zero,18(s0)
    1f36:	b7cd                	j	1f18 <get_I2C_Status+0xae>
    1f38:	00006537          	lui	a0,0x6
    1f3c:	ae850513          	addi	a0,a0,-1304 # 5ae8 <_read+0x570>
    1f40:	386020ef          	jal	ra,42c6 <puts>
    1f44:	06400513          	li	a0,100
    1f48:	bf4d                	j	1efa <get_I2C_Status+0x90>
    1f4a:	200c                	lbu	a1,0(s0)
    1f4c:	00006537          	lui	a0,0x6
    1f50:	afc50513          	addi	a0,a0,-1284 # 5afc <_read+0x584>
    1f54:	25e020ef          	jal	ra,41b2 <iprintf>
    1f58:	06500513          	li	a0,101
    1f5c:	bf79                	j	1efa <get_I2C_Status+0x90>
    1f5e:	4505                	li	a0,1
    1f60:	bf69                	j	1efa <get_I2C_Status+0x90>

00001f62 <my_SC8726_Init>:
    1f62:	77818793          	addi	a5,gp,1912 # 20001190 <sc8726>
    1f66:	00079023          	sh	zero,0(a5)
    1f6a:	00079223          	sh	zero,4(a5)
    1f6e:	00079423          	sh	zero,8(a5)
    1f72:	00078f23          	sb	zero,30(a5)
    1f76:	8082                	ret

00001f78 <my_SC8726_Set_Out_Vbus>:
    1f78:	9b8fe2ef          	jal	t0,130 <__riscv_save_0>
    1f7c:	6785                	lui	a5,0x1
    1f7e:	38778793          	addi	a5,a5,903 # 1387 <key_off_click_handle+0x1d>
    1f82:	84ae                	mv	s1,a1
    1f84:	77818413          	addi	s0,gp,1912 # 20001190 <sc8726>
    1f88:	04a7e163          	bltu	a5,a0,1fca <my_SC8726_Set_Out_Vbus+0x52>
    1f8c:	85aa                	mv	a1,a0
    1f8e:	00006537          	lui	a0,0x6
    1f92:	b6050513          	addi	a0,a0,-1184 # 5b60 <_read+0x5e8>
    1f96:	21c020ef          	jal	ra,41b2 <iprintf>
    1f9a:	6785                	lui	a5,0x1
    1f9c:	38878793          	addi	a5,a5,904 # 1388 <key_off_click_handle+0x1e>
    1fa0:	a05e                	sh	a5,4(s0)
    1fa2:	4795                	li	a5,5
    1fa4:	00249593          	slli	a1,s1,0x2
    1fa8:	02f5c5b3          	div	a1,a1,a5
    1fac:	00006537          	lui	a0,0x6
    1fb0:	b9450513          	addi	a0,a0,-1132 # 5b94 <_read+0x61c>
    1fb4:	a06c                	sb	a1,6(s0)
    1fb6:	0ff5f593          	andi	a1,a1,255
    1fba:	1f8020ef          	jal	ra,41b2 <iprintf>
    1fbe:	301c                	lbu	a5,1(s0)
    1fc0:	e399                	bnez	a5,1fc6 <my_SC8726_Set_Out_Vbus+0x4e>
    1fc2:	478d                	li	a5,3
    1fc4:	b01c                	sb	a5,1(s0)
    1fc6:	98efe06f          	j	154 <__riscv_restore_0>
    1fca:	690d                	lui	s2,0x3
    1fcc:	ee090913          	addi	s2,s2,-288 # 2ee0 <my_spi_handle+0x33e>
    1fd0:	00a97c63          	bgeu	s2,a0,1fe8 <my_SC8726_Set_Out_Vbus+0x70>
    1fd4:	85aa                	mv	a1,a0
    1fd6:	00006537          	lui	a0,0x6
    1fda:	b7850513          	addi	a0,a0,-1160 # 5b78 <_read+0x600>
    1fde:	1d4020ef          	jal	ra,41b2 <iprintf>
    1fe2:	01241223          	sh	s2,4(s0)
    1fe6:	bf75                	j	1fa2 <my_SC8726_Set_Out_Vbus+0x2a>
    1fe8:	a04a                	sh	a0,4(s0)
    1fea:	bf65                	j	1fa2 <my_SC8726_Set_Out_Vbus+0x2a>

00001fec <my_SC8726_Close_Vbus>:
    1fec:	77818713          	addi	a4,gp,1912 # 20001190 <sc8726>
    1ff0:	3318                	lbu	a4,1(a4)
    1ff2:	77818793          	addi	a5,gp,1912 # 20001190 <sc8726>
    1ff6:	e319                	bnez	a4,1ffc <my_SC8726_Close_Vbus+0x10>
    1ff8:	4705                	li	a4,1
    1ffa:	b398                	sb	a4,1(a5)
    1ffc:	00079223          	sh	zero,4(a5)
    2000:	8082                	ret

00002002 <get_SC8726_Vbus_Out_Status>:
    2002:	7791c503          	lbu	a0,1913(gp) # 20001191 <sc8726+0x1>
    2006:	8082                	ret

00002008 <my_SC8726_Init_Handle>:
    2008:	90efe2ef          	jal	t0,116 <__riscv_save_4>
    200c:	77818913          	addi	s2,gp,1912 # 20001190 <sc8726>
    2010:	00094783          	lbu	a5,0(s2)
    2014:	4985                	li	s3,1
    2016:	77818413          	addi	s0,gp,1912 # 20001190 <sc8726>
    201a:	03378963          	beq	a5,s3,204c <my_SC8726_Init_Handle+0x44>
    201e:	cb89                	beqz	a5,2030 <my_SC8726_Init_Handle+0x28>
    2020:	4709                	li	a4,2
    2022:	04e78b63          	beq	a5,a4,2078 <my_SC8726_Init_Handle+0x70>
    2026:	470d                	li	a4,3
    2028:	08e78d63          	beq	a5,a4,20c2 <my_SC8726_Init_Handle+0xba>
    202c:	91efe06f          	j	14a <__riscv_restore_4>
    2030:	40011537          	lui	a0,0x40011
    2034:	4605                	li	a2,1
    2036:	4591                	li	a1,4
    2038:	80050513          	addi	a0,a0,-2048 # 40010800 <_eusrstack+0x2000b800>
    203c:	1a9010ef          	jal	ra,39e4 <GPIO_WriteBit>
    2040:	478d                	li	a5,3
    2042:	00f91123          	sh	a5,2(s2)
    2046:	01390023          	sb	s3,0(s2)
    204a:	b7cd                	j	202c <my_SC8726_Init_Handle+0x24>
    204c:	203e                	lhu	a5,2(s0)
    204e:	8471c703          	lbu	a4,-1977(gp) # 2000025f <Tmr_Ms_Dlt>
    2052:	00f76d63          	bltu	a4,a5,206c <my_SC8726_Init_Handle+0x64>
    2056:	00041123          	sh	zero,2(s0)
    205a:	4789                	li	a5,2
    205c:	00a40613          	addi	a2,s0,10
    2060:	45a9                	li	a1,10
    2062:	4505                	li	a0,1
    2064:	a01c                	sb	a5,0(s0)
    2066:	b93ff0ef          	jal	ra,1bf8 <my_i2c_read_addr>
    206a:	b7c9                	j	202c <my_SC8726_Init_Handle+0x24>
    206c:	8f99                	sub	a5,a5,a4
    206e:	07c2                	slli	a5,a5,0x10
    2070:	83c1                	srli	a5,a5,0x10
    2072:	a03e                	sh	a5,2(s0)
    2074:	ffc5                	bnez	a5,202c <my_SC8726_Init_Handle+0x24>
    2076:	b7d5                	j	205a <my_SC8726_Init_Handle+0x52>
    2078:	df3ff0ef          	jal	ra,1e6a <get_I2C_Status>
    207c:	07351163          	bne	a0,s3,20de <my_SC8726_Init_Handle+0xd6>
    2080:	77818493          	addi	s1,gp,1912 # 20001190 <sc8726>
    2084:	00a40913          	addi	s2,s0,10
    2088:	000069b7          	lui	s3,0x6
    208c:	24ac                	lbu	a1,10(s1)
    208e:	b4898513          	addi	a0,s3,-1208 # 5b48 <_read+0x5d0>
    2092:	0485                	addi	s1,s1,1
    2094:	11e020ef          	jal	ra,41b2 <iprintf>
    2098:	ff249ae3          	bne	s1,s2,208c <my_SC8726_Init_Handle+0x84>
    209c:	00005537          	lui	a0,0x5
    20a0:	66450513          	addi	a0,a0,1636 # 5664 <_read+0xec>
    20a4:	222020ef          	jal	ra,42c6 <puts>
    20a8:	478d                	li	a5,3
    20aa:	a01c                	sb	a5,0(s0)
    20ac:	247c                	lbu	a5,14(s0)
    20ae:	01440613          	addi	a2,s0,20
    20b2:	4585                	li	a1,1
    20b4:	0047e793          	ori	a5,a5,4
    20b8:	4515                	li	a0,5
    20ba:	a85c                	sb	a5,20(s0)
    20bc:	b55ff0ef          	jal	ra,1c10 <my_i2c_write_addr>
    20c0:	b7b5                	j	202c <my_SC8726_Init_Handle+0x24>
    20c2:	da9ff0ef          	jal	ra,1e6a <get_I2C_Status>
    20c6:	01351c63          	bne	a0,s3,20de <my_SC8726_Init_Handle+0xd6>
    20ca:	00006537          	lui	a0,0x6
    20ce:	b5050513          	addi	a0,a0,-1200 # 5b50 <_read+0x5d8>
    20d2:	1f4020ef          	jal	ra,42c6 <puts>
    20d6:	4791                	li	a5,4
    20d8:	00f90023          	sb	a5,0(s2)
    20dc:	bf81                	j	202c <my_SC8726_Init_Handle+0x24>
    20de:	d539                	beqz	a0,202c <my_SC8726_Init_Handle+0x24>
    20e0:	00a90023          	sb	a0,0(s2)
    20e4:	b7a1                	j	202c <my_SC8726_Init_Handle+0x24>

000020e6 <my_SC8726_Control_Handle>:
    20e6:	84afe2ef          	jal	t0,130 <__riscv_save_0>
    20ea:	77818793          	addi	a5,gp,1912 # 20001190 <sc8726>
    20ee:	339c                	lbu	a5,1(a5)
    20f0:	4715                	li	a4,5
    20f2:	17fd                	addi	a5,a5,-1
    20f4:	0ff7f793          	andi	a5,a5,255
    20f8:	04f76963          	bltu	a4,a5,214a <my_SC8726_Control_Handle+0x64>
    20fc:	6719                	lui	a4,0x6
    20fe:	078a                	slli	a5,a5,0x2
    2100:	a9870713          	addi	a4,a4,-1384 # 5a98 <_read+0x520>
    2104:	97ba                	add	a5,a5,a4
    2106:	439c                	lw	a5,0(a5)
    2108:	77818413          	addi	s0,gp,1912 # 20001190 <sc8726>
    210c:	8782                	jr	a5
    210e:	247c                	lbu	a5,14(s0)
    2110:	01440613          	addi	a2,s0,20
    2114:	4585                	li	a1,1
    2116:	0047e793          	ori	a5,a5,4
    211a:	4515                	li	a0,5
    211c:	a85c                	sb	a5,20(s0)
    211e:	af3ff0ef          	jal	ra,1c10 <my_i2c_write_addr>
    2122:	4789                	li	a5,2
    2124:	b01c                	sb	a5,1(s0)
    2126:	a015                	j	214a <my_SC8726_Control_Handle+0x64>
    2128:	d43ff0ef          	jal	ra,1e6a <get_I2C_Status>
    212c:	4785                	li	a5,1
    212e:	08f51963          	bne	a0,a5,21c0 <my_SC8726_Control_Handle+0xda>
    2132:	00006537          	lui	a0,0x6
    2136:	b5050513          	addi	a0,a0,-1200 # 5b50 <_read+0x5d8>
    213a:	18c020ef          	jal	ra,42c6 <puts>
    213e:	000400a3          	sb	zero,1(s0)
    2142:	00041223          	sh	zero,4(s0)
    2146:	00041423          	sh	zero,8(s0)
    214a:	80afe06f          	j	154 <__riscv_restore_0>
    214e:	205e                	lhu	a5,4(s0)
    2150:	777d                	lui	a4,0xfffff
    2152:	d5470713          	addi	a4,a4,-684 # ffffed54 <_eusrstack+0xdfff9d54>
    2156:	97ba                	add	a5,a5,a4
    2158:	2078                	lbu	a4,6(s0)
    215a:	07c2                	slli	a5,a5,0x10
    215c:	83c1                	srli	a5,a5,0x10
    215e:	a858                	sb	a4,20(s0)
    2160:	3438                	lbu	a4,11(s0)
    2162:	46d1                	li	a3,20
    2164:	01440613          	addi	a2,s0,20
    2168:	00276713          	ori	a4,a4,2
    216c:	b858                	sb	a4,21(s0)
    216e:	05000713          	li	a4,80
    2172:	02e7d733          	divu	a4,a5,a4
    2176:	4591                	li	a1,4
    2178:	4505                	li	a0,1
    217a:	02d7d7b3          	divu	a5,a5,a3
    217e:	a878                	sb	a4,22(s0)
    2180:	3458                	lbu	a4,13(s0)
    2182:	9b01                	andi	a4,a4,-32
    2184:	01876713          	ori	a4,a4,24
    2188:	8b8d                	andi	a5,a5,3
    218a:	97ba                	add	a5,a5,a4
    218c:	b87c                	sb	a5,23(s0)
    218e:	a83ff0ef          	jal	ra,1c10 <my_i2c_write_addr>
    2192:	205a                	lhu	a4,4(s0)
    2194:	86e19323          	sh	a4,-1946(gp) # 2000027e <set_Vbus.4514>
    2198:	4791                	li	a5,4
    219a:	b769                	j	2124 <my_SC8726_Control_Handle+0x3e>
    219c:	ccfff0ef          	jal	ra,1e6a <get_I2C_Status>
    21a0:	4785                	li	a5,1
    21a2:	00f51f63          	bne	a0,a5,21c0 <my_SC8726_Control_Handle+0xda>
    21a6:	8661d583          	lhu	a1,-1946(gp) # 2000027e <set_Vbus.4514>
    21aa:	00006537          	lui	a0,0x6
    21ae:	b0c50513          	addi	a0,a0,-1268 # 5b0c <_read+0x594>
    21b2:	000020ef          	jal	ra,41b2 <iprintf>
    21b6:	4795                	li	a5,5
    21b8:	b01c                	sb	a5,1(s0)
    21ba:	47d1                	li	a5,20
    21bc:	a03e                	sh	a5,2(s0)
    21be:	b771                	j	214a <my_SC8726_Control_Handle+0x64>
    21c0:	d549                	beqz	a0,214a <my_SC8726_Control_Handle+0x64>
    21c2:	b008                	sb	a0,1(s0)
    21c4:	b759                	j	214a <my_SC8726_Control_Handle+0x64>
    21c6:	203e                	lhu	a5,2(s0)
    21c8:	8471c703          	lbu	a4,-1977(gp) # 2000025f <Tmr_Ms_Dlt>
    21cc:	02f76263          	bltu	a4,a5,21f0 <my_SC8726_Control_Handle+0x10a>
    21d0:	00041123          	sh	zero,2(s0)
    21d4:	4799                	li	a5,6
    21d6:	b01c                	sb	a5,1(s0)
    21d8:	247c                	lbu	a5,14(s0)
    21da:	01440613          	addi	a2,s0,20
    21de:	4585                	li	a1,1
    21e0:	9be5                	andi	a5,a5,-7
    21e2:	0027e793          	ori	a5,a5,2
    21e6:	4515                	li	a0,5
    21e8:	a85c                	sb	a5,20(s0)
    21ea:	a27ff0ef          	jal	ra,1c10 <my_i2c_write_addr>
    21ee:	bfb1                	j	214a <my_SC8726_Control_Handle+0x64>
    21f0:	8f99                	sub	a5,a5,a4
    21f2:	07c2                	slli	a5,a5,0x10
    21f4:	83c1                	srli	a5,a5,0x10
    21f6:	a03e                	sh	a5,2(s0)
    21f8:	fba9                	bnez	a5,214a <my_SC8726_Control_Handle+0x64>
    21fa:	bfe9                	j	21d4 <my_SC8726_Control_Handle+0xee>
    21fc:	c6fff0ef          	jal	ra,1e6a <get_I2C_Status>
    2200:	4785                	li	a5,1
    2202:	84aa                	mv	s1,a0
    2204:	04f51163          	bne	a0,a5,2246 <my_SC8726_Control_Handle+0x160>
    2208:	86618913          	addi	s2,gp,-1946 # 2000027e <set_Vbus.4514>
    220c:	00095583          	lhu	a1,0(s2)
    2210:	00006537          	lui	a0,0x6
    2214:	b2c50513          	addi	a0,a0,-1236 # 5b2c <_read+0x5b4>
    2218:	79b010ef          	jal	ra,41b2 <iprintf>
    221c:	00095703          	lhu	a4,0(s2)
    2220:	205e                	lhu	a5,4(s0)
    2222:	a41a                	sh	a4,8(s0)
    2224:	00f70e63          	beq	a4,a5,2240 <my_SC8726_Control_Handle+0x15a>
    2228:	c385                	beqz	a5,2248 <my_SC8726_Control_Handle+0x162>
    222a:	478d                	li	a5,3
    222c:	b01c                	sb	a5,1(s0)
    222e:	40011537          	lui	a0,0x40011
    2232:	4605                	li	a2,1
    2234:	45a1                	li	a1,8
    2236:	80050513          	addi	a0,a0,-2048 # 40010800 <_eusrstack+0x2000b800>
    223a:	7aa010ef          	jal	ra,39e4 <GPIO_WriteBit>
    223e:	b731                	j	214a <my_SC8726_Control_Handle+0x64>
    2240:	000400a3          	sb	zero,1(s0)
    2244:	b7ed                	j	222e <my_SC8726_Control_Handle+0x148>
    2246:	d565                	beqz	a0,222e <my_SC8726_Control_Handle+0x148>
    2248:	b004                	sb	s1,1(s0)
    224a:	b7d5                	j	222e <my_SC8726_Control_Handle+0x148>

0000224c <my_SC8726_Handle>:
    224c:	ee5fd2ef          	jal	t0,130 <__riscv_save_0>
    2250:	77818793          	addi	a5,gp,1912 # 20001190 <sc8726>
    2254:	2398                	lbu	a4,0(a5)
    2256:	468d                	li	a3,3
    2258:	00e6e863          	bltu	a3,a4,2268 <my_SC8726_Handle+0x1c>
    225c:	2ffc                	lbu	a5,30(a5)
    225e:	c399                	beqz	a5,2264 <my_SC8726_Handle+0x18>
    2260:	da9ff0ef          	jal	ra,2008 <my_SC8726_Init_Handle>
    2264:	ef1fd06f          	j	154 <__riscv_restore_0>
    2268:	4791                	li	a5,4
    226a:	fef71de3          	bne	a4,a5,2264 <my_SC8726_Handle+0x18>
    226e:	e79ff0ef          	jal	ra,20e6 <my_SC8726_Control_Handle>
    2272:	bfcd                	j	2264 <my_SC8726_Handle+0x18>

00002274 <set_sc8726_select>:
    2274:	ebdfd2ef          	jal	t0,130 <__riscv_save_0>
    2278:	77818713          	addi	a4,gp,1912 # 20001190 <sc8726>
    227c:	2f78                	lbu	a4,30(a4)
    227e:	1141                	addi	sp,sp,-16
    2280:	c402                	sw	zero,8(sp)
    2282:	c602                	sw	zero,12(sp)
    2284:	77818413          	addi	s0,gp,1912 # 20001190 <sc8726>
    2288:	e325                	bnez	a4,22e8 <set_sc8726_select+0x74>
    228a:	400054b7          	lui	s1,0x40005
    228e:	4585                	li	a1,1
    2290:	40048513          	addi	a0,s1,1024 # 40005400 <_eusrstack+0x20000400>
    2294:	11f010ef          	jal	ra,3bb2 <I2C_AcknowledgeConfig>
    2298:	11e00793          	li	a5,286
    229c:	4905                	li	s2,1
    229e:	0028                	addi	a0,sp,8
    22a0:	847c                	sh	a5,8(sp)
    22a2:	00010523          	sb	zero,10(sp)
    22a6:	c64a                	sw	s2,12(sp)
    22a8:	223010ef          	jal	ra,3cca <NVIC_Init>
    22ac:	11f00793          	li	a5,287
    22b0:	0028                	addi	a0,sp,8
    22b2:	847c                	sh	a5,8(sp)
    22b4:	01210523          	sb	s2,10(sp)
    22b8:	c64a                	sw	s2,12(sp)
    22ba:	211010ef          	jal	ra,3cca <NVIC_Init>
    22be:	4605                	li	a2,1
    22c0:	40000593          	li	a1,1024
    22c4:	40048513          	addi	a0,s1,1024
    22c8:	105010ef          	jal	ra,3bcc <I2C_ITConfig>
    22cc:	4605                	li	a2,1
    22ce:	20000593          	li	a1,512
    22d2:	40048513          	addi	a0,s1,1024
    22d6:	0f7010ef          	jal	ra,3bcc <I2C_ITConfig>
    22da:	4605                	li	a2,1
    22dc:	10000593          	li	a1,256
    22e0:	40048513          	addi	a0,s1,1024
    22e4:	0e9010ef          	jal	ra,3bcc <I2C_ITConfig>
    22e8:	4785                	li	a5,1
    22ea:	ac7c                	sb	a5,30(s0)
    22ec:	0141                	addi	sp,sp,16
    22ee:	e67fd06f          	j	154 <__riscv_restore_0>

000022f2 <pd_chip_lock_voltage_set>:
    22f2:	86a18523          	sb	a0,-1942(gp) # 20000282 <pd_voltage_level>
    22f6:	8082                	ret

000022f8 <pd_chip_lock_voltage_get>:
    22f8:	86a1c503          	lbu	a0,-1942(gp) # 20000282 <pd_voltage_level>
    22fc:	8082                	ret

000022fe <TIM1_Init>:
    22fe:	e33fd2ef          	jal	t0,130 <__riscv_save_0>
    2302:	1101                	addi	sp,sp,-32
    2304:	40013437          	lui	s0,0x40013
    2308:	84e8                	sh	a0,24(sp)
    230a:	82ec                	sh	a1,20(sp)
    230c:	c0040513          	addi	a0,s0,-1024 # 40012c00 <_eusrstack+0x2000dc00>
    2310:	084c                	addi	a1,sp,20
    2312:	00011b23          	sh	zero,22(sp)
    2316:	00011d23          	sh	zero,26(sp)
    231a:	00011e23          	sh	zero,28(sp)
    231e:	c602                	sw	zero,12(sp)
    2320:	c802                	sw	zero,16(sp)
    2322:	329010ef          	jal	ra,3e4a <TIM_TimeBaseInit>
    2326:	4585                	li	a1,1
    2328:	c0040513          	addi	a0,s0,-1024
    232c:	3b7010ef          	jal	ra,3ee2 <TIM_ClearITPendingBit>
    2330:	12300793          	li	a5,291
    2334:	867c                	sh	a5,12(sp)
    2336:	4785                	li	a5,1
    2338:	875c                	sb	a5,14(sp)
    233a:	0068                	addi	a0,sp,12
    233c:	4785                	li	a5,1
    233e:	c83e                	sw	a5,16(sp)
    2340:	18b010ef          	jal	ra,3cca <NVIC_Init>
    2344:	4605                	li	a2,1
    2346:	c0040513          	addi	a0,s0,-1024
    234a:	4585                	li	a1,1
    234c:	36d010ef          	jal	ra,3eb8 <TIM_ITConfig>
    2350:	4585                	li	a1,1
    2352:	c0040513          	addi	a0,s0,-1024
    2356:	34b010ef          	jal	ra,3ea0 <TIM_Cmd>
    235a:	6105                	addi	sp,sp,32
    235c:	df9fd06f          	j	154 <__riscv_restore_0>

00002360 <TIM2_Init>:
    2360:	dd1fd2ef          	jal	t0,130 <__riscv_save_0>
    2364:	1101                	addi	sp,sp,-32
    2366:	842e                	mv	s0,a1
    2368:	84aa                	mv	s1,a0
    236a:	4585                	li	a1,1
    236c:	4505                	li	a0,1
    236e:	ca02                	sw	zero,20(sp)
    2370:	cc02                	sw	zero,24(sp)
    2372:	00011e23          	sh	zero,28(sp)
    2376:	c602                	sw	zero,12(sp)
    2378:	c802                	sw	zero,16(sp)
    237a:	201010ef          	jal	ra,3d7a <RCC_APB1PeriphClockCmd>
    237e:	084c                	addi	a1,sp,20
    2380:	40000537          	lui	a0,0x40000
    2384:	84e4                	sh	s1,24(sp)
    2386:	82e0                	sh	s0,20(sp)
    2388:	00011d23          	sh	zero,26(sp)
    238c:	00011b23          	sh	zero,22(sp)
    2390:	00010e23          	sb	zero,28(sp)
    2394:	2b7010ef          	jal	ra,3e4a <TIM_TimeBaseInit>
    2398:	4585                	li	a1,1
    239a:	40000537          	lui	a0,0x40000
    239e:	345010ef          	jal	ra,3ee2 <TIM_ClearITPendingBit>
    23a2:	12600793          	li	a5,294
    23a6:	867c                	sh	a5,12(sp)
    23a8:	4785                	li	a5,1
    23aa:	875c                	sb	a5,14(sp)
    23ac:	0068                	addi	a0,sp,12
    23ae:	4785                	li	a5,1
    23b0:	c83e                	sw	a5,16(sp)
    23b2:	119010ef          	jal	ra,3cca <NVIC_Init>
    23b6:	4605                	li	a2,1
    23b8:	4585                	li	a1,1
    23ba:	40000537          	lui	a0,0x40000
    23be:	2fb010ef          	jal	ra,3eb8 <TIM_ITConfig>
    23c2:	4585                	li	a1,1
    23c4:	40000537          	lui	a0,0x40000
    23c8:	2d9010ef          	jal	ra,3ea0 <TIM_Cmd>
    23cc:	6105                	addi	sp,sp,32
    23ce:	d87fd06f          	j	154 <__riscv_restore_0>

000023d2 <get_PD_Status>:
    23d2:	8681c503          	lbu	a0,-1944(gp) # 20000280 <PD_STATUS>
    23d6:	8082                	ret

000023d8 <my_PD_Status_init>:
    23d8:	d59fd2ef          	jal	t0,130 <__riscv_save_0>
    23dc:	8681c783          	lbu	a5,-1944(gp) # 20000280 <PD_STATUS>
    23e0:	e38d                	bnez	a5,2402 <my_PD_Status_init+0x2a>
    23e2:	40011537          	lui	a0,0x40011
    23e6:	4605                	li	a2,1
    23e8:	4585                	li	a1,1
    23ea:	80050513          	addi	a0,a0,-2048 # 40010800 <_eusrstack+0x2000b800>
    23ee:	5f6010ef          	jal	ra,39e4 <GPIO_WriteBit>
    23f2:	4605                	li	a2,1
    23f4:	45a1                	li	a1,8
    23f6:	40011537          	lui	a0,0x40011
    23fa:	5ea010ef          	jal	ra,39e4 <GPIO_WriteBit>
    23fe:	d57fd06f          	j	154 <__riscv_restore_0>
    2402:	40011537          	lui	a0,0x40011
    2406:	4601                	li	a2,0
    2408:	4585                	li	a1,1
    240a:	80050513          	addi	a0,a0,-2048 # 40010800 <_eusrstack+0x2000b800>
    240e:	5d6010ef          	jal	ra,39e4 <GPIO_WriteBit>
    2412:	4601                	li	a2,0
    2414:	b7c5                	j	23f4 <my_PD_Status_init+0x1c>

00002416 <set_PD_STATUS_SRC>:
    2416:	d1bfd2ef          	jal	t0,130 <__riscv_save_0>
    241a:	4705                	li	a4,1
    241c:	86e18423          	sb	a4,-1944(gp) # 20000280 <PD_STATUS>
    2420:	fb9ff0ef          	jal	ra,23d8 <my_PD_Status_init>
    2424:	f35fd0ef          	jal	ra,358 <PD_Init>
    2428:	d2dfd06f          	j	154 <__riscv_restore_0>

0000242c <set_PD_STATUS_SNK>:
    242c:	d05fd2ef          	jal	t0,130 <__riscv_save_0>
    2430:	86018423          	sb	zero,-1944(gp) # 20000280 <PD_STATUS>
    2434:	fa5ff0ef          	jal	ra,23d8 <my_PD_Status_init>
    2438:	f21fd0ef          	jal	ra,358 <PD_Init>
    243c:	d19fd06f          	j	154 <__riscv_restore_0>

00002440 <GPIO_Toggle_INIT>:
    2440:	cd7fd2ef          	jal	t0,116 <__riscv_save_4>
    2444:	1141                	addi	sp,sp,-16
    2446:	4585                	li	a1,1
    2448:	4511                	li	a0,4
    244a:	c202                	sw	zero,4(sp)
    244c:	c402                	sw	zero,8(sp)
    244e:	c602                	sw	zero,12(sp)
    2450:	10d010ef          	jal	ra,3d5c <RCC_APB2PeriphClockCmd>
    2454:	4585                	li	a1,1
    2456:	4541                	li	a0,16
    2458:	105010ef          	jal	ra,3d5c <RCC_APB2PeriphClockCmd>
    245c:	40011437          	lui	s0,0x40011
    2460:	4485                	li	s1,1
    2462:	4941                	li	s2,16
    2464:	004c                	addi	a1,sp,4
    2466:	80040513          	addi	a0,s0,-2048 # 40010800 <_eusrstack+0x2000b800>
    246a:	c226                	sw	s1,4(sp)
    246c:	c64a                	sw	s2,12(sp)
    246e:	c426                	sw	s1,8(sp)
    2470:	3fc010ef          	jal	ra,386c <GPIO_Init>
    2474:	49a1                	li	s3,8
    2476:	004c                	addi	a1,sp,4
    2478:	40011537          	lui	a0,0x40011
    247c:	c24e                	sw	s3,4(sp)
    247e:	c64a                	sw	s2,12(sp)
    2480:	c426                	sw	s1,8(sp)
    2482:	3ea010ef          	jal	ra,386c <GPIO_Init>
    2486:	4791                	li	a5,4
    2488:	004c                	addi	a1,sp,4
    248a:	80040513          	addi	a0,s0,-2048
    248e:	c23e                	sw	a5,4(sp)
    2490:	c64a                	sw	s2,12(sp)
    2492:	c426                	sw	s1,8(sp)
    2494:	3d8010ef          	jal	ra,386c <GPIO_Init>
    2498:	004c                	addi	a1,sp,4
    249a:	80040513          	addi	a0,s0,-2048
    249e:	c24e                	sw	s3,4(sp)
    24a0:	c64a                	sw	s2,12(sp)
    24a2:	c426                	sw	s1,8(sp)
    24a4:	3c8010ef          	jal	ra,386c <GPIO_Init>
    24a8:	f31ff0ef          	jal	ra,23d8 <my_PD_Status_init>
    24ac:	80040513          	addi	a0,s0,-2048
    24b0:	4601                	li	a2,0
    24b2:	4591                	li	a1,4
    24b4:	530010ef          	jal	ra,39e4 <GPIO_WriteBit>
    24b8:	c0040513          	addi	a0,s0,-1024
    24bc:	4601                	li	a2,0
    24be:	4585                	li	a1,1
    24c0:	524010ef          	jal	ra,39e4 <GPIO_WriteBit>
    24c4:	4601                	li	a2,0
    24c6:	45a1                	li	a1,8
    24c8:	80040513          	addi	a0,s0,-2048
    24cc:	518010ef          	jal	ra,39e4 <GPIO_WriteBit>
    24d0:	0141                	addi	sp,sp,16
    24d2:	c79fd06f          	j	14a <__riscv_restore_4>

000024d6 <my_VBus_Countrol>:
    24d6:	c5bfd2ef          	jal	t0,130 <__riscv_save_0>
    24da:	8681c783          	lbu	a5,-1944(gp) # 20000280 <PD_STATUS>
    24de:	cfad                	beqz	a5,2558 <my_VBus_Countrol+0x82>
    24e0:	e115                	bnez	a0,2504 <my_VBus_Countrol+0x2e>
    24e2:	40011537          	lui	a0,0x40011
    24e6:	80050513          	addi	a0,a0,-2048 # 40010800 <_eusrstack+0x2000b800>
    24ea:	4601                	li	a2,0
    24ec:	45a1                	li	a1,8
    24ee:	4f6010ef          	jal	ra,39e4 <GPIO_WriteBit>
    24f2:	afbff0ef          	jal	ra,1fec <my_SC8726_Close_Vbus>
    24f6:	00006537          	lui	a0,0x6
    24fa:	bb450513          	addi	a0,a0,-1100 # 5bb4 <_read+0x63c>
    24fe:	5c9010ef          	jal	ra,42c6 <puts>
    2502:	a835                	j	253e <my_VBus_Countrol+0x68>
    2504:	4785                	li	a5,1
    2506:	02f51063          	bne	a0,a5,2526 <my_VBus_Countrol+0x50>
    250a:	4501                	li	a0,0
    250c:	d4dfd0ef          	jal	ra,258 <get_PD_Vbus_Current>
    2510:	85aa                	mv	a1,a0
    2512:	6505                	lui	a0,0x1
    2514:	38850513          	addi	a0,a0,904 # 1388 <key_off_click_handle+0x1e>
    2518:	a61ff0ef          	jal	ra,1f78 <my_SC8726_Set_Out_Vbus>
    251c:	00006537          	lui	a0,0x6
    2520:	bc050513          	addi	a0,a0,-1088 # 5bc0 <_read+0x648>
    2524:	bfe9                	j	24fe <my_VBus_Countrol+0x28>
    2526:	4789                	li	a5,2
    2528:	00f51d63          	bne	a0,a5,2542 <my_VBus_Countrol+0x6c>
    252c:	4505                	li	a0,1
    252e:	d2bfd0ef          	jal	ra,258 <get_PD_Vbus_Current>
    2532:	85aa                	mv	a1,a0
    2534:	6509                	lui	a0,0x2
    2536:	32850513          	addi	a0,a0,808 # 2328 <TIM1_Init+0x2a>
    253a:	a3fff0ef          	jal	ra,1f78 <my_SC8726_Set_Out_Vbus>
    253e:	c17fd06f          	j	154 <__riscv_restore_0>
    2542:	478d                	li	a5,3
    2544:	fef51de3          	bne	a0,a5,253e <my_VBus_Countrol+0x68>
    2548:	4509                	li	a0,2
    254a:	d0ffd0ef          	jal	ra,258 <get_PD_Vbus_Current>
    254e:	85aa                	mv	a1,a0
    2550:	650d                	lui	a0,0x3
    2552:	ee050513          	addi	a0,a0,-288 # 2ee0 <my_spi_handle+0x33e>
    2556:	b7d5                	j	253a <my_VBus_Countrol+0x64>
    2558:	00006537          	lui	a0,0x6
    255c:	bd050513          	addi	a0,a0,-1072 # 5bd0 <_read+0x658>
    2560:	bf79                	j	24fe <my_VBus_Countrol+0x28>

00002562 <my_TIM_Handle>:
    2562:	bcffd2ef          	jal	t0,130 <__riscv_save_0>
    2566:	40013437          	lui	s0,0x40013
    256a:	c0040513          	addi	a0,s0,-1024 # 40012c00 <_eusrstack+0x2000dc00>
    256e:	4601                	li	a2,0
    2570:	4585                	li	a1,1
    2572:	147010ef          	jal	ra,3eb8 <TIM_ITConfig>
    2576:	8691c683          	lbu	a3,-1943(gp) # 20000281 <Tim_Ms_Cnt>
    257a:	8461c783          	lbu	a5,-1978(gp) # 2000025e <Tmr_Ms_Cnt_Last>
    257e:	4585                	li	a1,1
    2580:	40f687b3          	sub	a5,a3,a5
    2584:	84f183a3          	sb	a5,-1977(gp) # 2000025f <Tmr_Ms_Dlt>
    2588:	c0040513          	addi	a0,s0,-1024
    258c:	4605                	li	a2,1
    258e:	84d18323          	sb	a3,-1978(gp) # 2000025e <Tmr_Ms_Cnt_Last>
    2592:	127010ef          	jal	ra,3eb8 <TIM_ITConfig>
    2596:	bbffd06f          	j	154 <__riscv_restore_0>

0000259a <my_PD_Handle>:
    259a:	b97fd2ef          	jal	t0,130 <__riscv_save_0>
    259e:	8f818713          	addi	a4,gp,-1800 # 20000310 <PD_Ctl>
    25a2:	8471c683          	lbu	a3,-1977(gp) # 2000025f <Tmr_Ms_Dlt>
    25a6:	371c                	lbu	a5,9(a4)
    25a8:	97b6                	add	a5,a5,a3
    25aa:	0ff7f793          	andi	a5,a5,255
    25ae:	4691                	li	a3,4
    25b0:	00f6e963          	bltu	a3,a5,25c2 <my_PD_Handle+0x28>
    25b4:	b71c                	sb	a5,9(a4)
    25b6:	e08fe0ef          	jal	ra,bbe <PD_Main_Proc>
    25ba:	acffe0ef          	jal	ra,1088 <my_pd_connect_valve>
    25be:	b97fd06f          	j	154 <__riscv_restore_0>
    25c2:	000704a3          	sb	zero,9(a4)
    25c6:	870fe0ef          	jal	ra,636 <PD_Det_Proc>
    25ca:	b7f5                	j	25b6 <my_PD_Handle+0x1c>

000025cc <TIM1_UP_IRQHandler>:
    25cc:	1141                	addi	sp,sp,-16
    25ce:	c622                	sw	s0,12(sp)
    25d0:	40013437          	lui	s0,0x40013
    25d4:	4585                	li	a1,1
    25d6:	c0040513          	addi	a0,s0,-1024 # 40012c00 <_eusrstack+0x2000dc00>
    25da:	0f1010ef          	jal	ra,3eca <TIM_GetITStatus>
    25de:	c50d                	beqz	a0,2608 <TIM1_UP_IRQHandler+0x3c>
    25e0:	86918793          	addi	a5,gp,-1943 # 20000281 <Tim_Ms_Cnt>
    25e4:	2398                	lbu	a4,0(a5)
    25e6:	4585                	li	a1,1
    25e8:	c0040513          	addi	a0,s0,-1024
    25ec:	0705                	addi	a4,a4,1
    25ee:	a398                	sb	a4,0(a5)
    25f0:	8601a783          	lw	a5,-1952(gp) # 20000278 <led_tick>
    25f4:	0785                	addi	a5,a5,1
    25f6:	86f1a023          	sw	a5,-1952(gp) # 20000278 <led_tick>
    25fa:	8941a783          	lw	a5,-1900(gp) # 200002ac <valve_tick>
    25fe:	0785                	addi	a5,a5,1
    2600:	88f1aa23          	sw	a5,-1900(gp) # 200002ac <valve_tick>
    2604:	0df010ef          	jal	ra,3ee2 <TIM_ClearITPendingBit>
    2608:	4432                	lw	s0,12(sp)
    260a:	0141                	addi	sp,sp,16
    260c:	30200073          	mret

00002610 <TIM2_UP_IRQHandler>:
    2610:	4585                	li	a1,1
    2612:	40000537          	lui	a0,0x40000
    2616:	0b5010ef          	jal	ra,3eca <TIM_GetITStatus>
    261a:	c919                	beqz	a0,2630 <TIM2_UP_IRQHandler+0x20>
    261c:	87018793          	addi	a5,gp,-1936 # 20000288 <valve_check_time>
    2620:	4398                	lw	a4,0(a5)
    2622:	4585                	li	a1,1
    2624:	40000537          	lui	a0,0x40000
    2628:	0705                	addi	a4,a4,1
    262a:	c398                	sw	a4,0(a5)
    262c:	0b7010ef          	jal	ra,3ee2 <TIM_ClearITPendingBit>
    2630:	30200073          	mret

00002634 <my_valve_check_Handle>:
    2634:	87018793          	addi	a5,gp,-1936 # 20000288 <valve_check_time>
    2638:	4394                	lw	a3,0(a5)
    263a:	0036f737          	lui	a4,0x36f
    263e:	e7f70713          	addi	a4,a4,-385 # 36ee7f <_data_lma+0x368deb>
    2642:	02d77463          	bgeu	a4,a3,266a <my_valve_check_Handle+0x36>
    2646:	86c18713          	addi	a4,gp,-1940 # 20000284 <valve_check_hour_count>
    264a:	0007a023          	sw	zero,0(a5)
    264e:	431c                	lw	a5,0(a4)
    2650:	0785                	addi	a5,a5,1
    2652:	c31c                	sw	a5,0(a4)
    2654:	07800713          	li	a4,120
    2658:	02e7f7b3          	remu	a5,a5,a4
    265c:	e799                	bnez	a5,266a <my_valve_check_Handle+0x36>
    265e:	ad3fd2ef          	jal	t0,130 <__riscv_save_0>
    2662:	63b000ef          	jal	ra,349c <valve_check>
    2666:	aeffd06f          	j	154 <__riscv_restore_0>
    266a:	8082                	ret

0000266c <my_Valve_Connect_PD>:
    266c:	4785                	li	a5,1
    266e:	c111                	beqz	a0,2672 <my_Valve_Connect_PD+0x6>
    2670:	478d                	li	a5,3
    2672:	86f18d23          	sb	a5,-1926(gp) # 20000292 <valve_status>
    2676:	8082                	ret

00002678 <my_Valve_Connect_SPI>:
    2678:	00a03533          	snez	a0,a0
    267c:	0509                	addi	a0,a0,2
    267e:	86a18d23          	sb	a0,-1926(gp) # 20000292 <valve_status>
    2682:	8082                	ret

00002684 <my_Valve_Disconnect>:
    2684:	86018d23          	sb	zero,-1926(gp) # 20000292 <valve_status>
    2688:	86018ba3          	sb	zero,-1929(gp) # 2000028f <valve_open_switch>
    268c:	86018aa3          	sb	zero,-1931(gp) # 2000028d <valve_close_switch>
    2690:	86018ca3          	sb	zero,-1927(gp) # 20000291 <valve_power_error>
    2694:	86018a23          	sb	zero,-1932(gp) # 2000028c <valve_check_error>
    2698:	86018c23          	sb	zero,-1928(gp) # 20000290 <valve_open_timeout>
    269c:	86018b23          	sb	zero,-1930(gp) # 2000028e <valve_close_timeout>
    26a0:	8082                	ret

000026a2 <my_Valve_Controls_Open>:
    26a2:	a8ffd2ef          	jal	t0,130 <__riscv_save_0>
    26a6:	00006537          	lui	a0,0x6
    26aa:	c7050513          	addi	a0,a0,-912 # 5c70 <_read+0x6f8>
    26ae:	419010ef          	jal	ra,42c6 <puts>
    26b2:	87a1c783          	lbu	a5,-1926(gp) # 20000292 <valve_status>
    26b6:	4705                	li	a4,1
    26b8:	00e79863          	bne	a5,a4,26c8 <my_Valve_Controls_Open+0x26>
    26bc:	86018c23          	sb	zero,-1928(gp) # 20000290 <valve_open_timeout>
    26c0:	aaffe0ef          	jal	ra,116e <my_pd_open_valve>
    26c4:	a91fd06f          	j	154 <__riscv_restore_0>
    26c8:	4709                	li	a4,2
    26ca:	00e79463          	bne	a5,a4,26d2 <my_Valve_Controls_Open+0x30>
    26ce:	2975                	jal	2b8a <my_spi_open_valve>
    26d0:	bfd5                	j	26c4 <my_Valve_Controls_Open+0x22>
    26d2:	00006537          	lui	a0,0x6
    26d6:	c8c50513          	addi	a0,a0,-884 # 5c8c <_read+0x714>
    26da:	3ed010ef          	jal	ra,42c6 <puts>
    26de:	b7dd                	j	26c4 <my_Valve_Controls_Open+0x22>

000026e0 <my_Valve_Controls_Close>:
    26e0:	a51fd2ef          	jal	t0,130 <__riscv_save_0>
    26e4:	00006537          	lui	a0,0x6
    26e8:	c3450513          	addi	a0,a0,-972 # 5c34 <_read+0x6bc>
    26ec:	3db010ef          	jal	ra,42c6 <puts>
    26f0:	87a1c783          	lbu	a5,-1926(gp) # 20000292 <valve_status>
    26f4:	4705                	li	a4,1
    26f6:	00e79863          	bne	a5,a4,2706 <my_Valve_Controls_Close+0x26>
    26fa:	86018b23          	sb	zero,-1930(gp) # 2000028e <valve_close_timeout>
    26fe:	a51fe0ef          	jal	ra,114e <my_pd_close_valve>
    2702:	a53fd06f          	j	154 <__riscv_restore_0>
    2706:	4709                	li	a4,2
    2708:	00e79463          	bne	a5,a4,2710 <my_Valve_Controls_Close+0x30>
    270c:	2159                	jal	2b92 <my_spi_close_valve>
    270e:	bfd5                	j	2702 <my_Valve_Controls_Close+0x22>
    2710:	00006537          	lui	a0,0x6
    2714:	c5050513          	addi	a0,a0,-944 # 5c50 <_read+0x6d8>
    2718:	3af010ef          	jal	ra,42c6 <puts>
    271c:	b7dd                	j	2702 <my_Valve_Controls_Close+0x22>

0000271e <my_Valve_Controls_Check>:
    271e:	a13fd2ef          	jal	t0,130 <__riscv_save_0>
    2722:	00006537          	lui	a0,0x6
    2726:	bf850513          	addi	a0,a0,-1032 # 5bf8 <_read+0x680>
    272a:	39d010ef          	jal	ra,42c6 <puts>
    272e:	87a1c783          	lbu	a5,-1926(gp) # 20000292 <valve_status>
    2732:	4705                	li	a4,1
    2734:	00e79a63          	bne	a5,a4,2748 <my_Valve_Controls_Check+0x2a>
    2738:	86018a23          	sb	zero,-1932(gp) # 2000028c <valve_check_error>
    273c:	86018c23          	sb	zero,-1928(gp) # 20000290 <valve_open_timeout>
    2740:	a4ffe0ef          	jal	ra,118e <my_pd_check_valve>
    2744:	a11fd06f          	j	154 <__riscv_restore_0>
    2748:	4709                	li	a4,2
    274a:	00e79463          	bne	a5,a4,2752 <my_Valve_Controls_Check+0x34>
    274e:	21b1                	jal	2b9a <my_spi_check_valve>
    2750:	bfd5                	j	2744 <my_Valve_Controls_Check+0x26>
    2752:	00006537          	lui	a0,0x6
    2756:	c1450513          	addi	a0,a0,-1004 # 5c14 <_read+0x69c>
    275a:	36d010ef          	jal	ra,42c6 <puts>
    275e:	b7dd                	j	2744 <my_Valve_Controls_Check+0x26>

00002760 <my_Valve_Set_power_error>:
    2760:	86a18ca3          	sb	a0,-1927(gp) # 20000291 <valve_power_error>
    2764:	8082                	ret

00002766 <my_Valve_Set_check_error>:
    2766:	86a18a23          	sb	a0,-1932(gp) # 2000028c <valve_check_error>
    276a:	8082                	ret

0000276c <my_Valve_Set_open_timeout>:
    276c:	86a18c23          	sb	a0,-1928(gp) # 20000290 <valve_open_timeout>
    2770:	8082                	ret

00002772 <my_Valve_Set_close_timeout>:
    2772:	86a18b23          	sb	a0,-1930(gp) # 2000028e <valve_close_timeout>
    2776:	8082                	ret

00002778 <my_Valve_Set_Status>:
    2778:	86a18ba3          	sb	a0,-1929(gp) # 2000028f <valve_open_switch>
    277c:	86b18aa3          	sb	a1,-1931(gp) # 2000028d <valve_close_switch>
    2780:	8082                	ret

00002782 <my_Spi_Connect_Error>:
    2782:	8082                	ret

00002784 <my_Valve_Get_Error>:
    2784:	993fd2ef          	jal	t0,116 <__riscv_save_4>
    2788:	87918993          	addi	s3,gp,-1927 # 20000291 <valve_power_error>
    278c:	87418913          	addi	s2,gp,-1932 # 2000028c <valve_check_error>
    2790:	0009c783          	lbu	a5,0(s3)
    2794:	00094583          	lbu	a1,0(s2)
    2798:	87818413          	addi	s0,gp,-1928 # 20000290 <valve_open_timeout>
    279c:	058a                	slli	a1,a1,0x2
    279e:	078e                	slli	a5,a5,0x3
    27a0:	97ae                	add	a5,a5,a1
    27a2:	200c                	lbu	a1,0(s0)
    27a4:	87618493          	addi	s1,gp,-1930 # 2000028e <valve_close_timeout>
    27a8:	0586                	slli	a1,a1,0x1
    27aa:	97ae                	add	a5,a5,a1
    27ac:	208c                	lbu	a1,0(s1)
    27ae:	00006537          	lui	a0,0x6
    27b2:	cac50513          	addi	a0,a0,-852 # 5cac <_read+0x734>
    27b6:	95be                	add	a1,a1,a5
    27b8:	1fb010ef          	jal	ra,41b2 <iprintf>
    27bc:	0009c503          	lbu	a0,0(s3)
    27c0:	00094783          	lbu	a5,0(s2)
    27c4:	050e                	slli	a0,a0,0x3
    27c6:	078a                	slli	a5,a5,0x2
    27c8:	953e                	add	a0,a0,a5
    27ca:	209c                	lbu	a5,0(s1)
    27cc:	953e                	add	a0,a0,a5
    27ce:	201c                	lbu	a5,0(s0)
    27d0:	0786                	slli	a5,a5,0x1
    27d2:	953e                	add	a0,a0,a5
    27d4:	0ff57513          	andi	a0,a0,255
    27d8:	973fd06f          	j	14a <__riscv_restore_4>

000027dc <my_PD_Valve_Receive>:
    27dc:	212c                	lbu	a1,2(a0)
    27de:	0aa00793          	li	a5,170
    27e2:	3130                	lbu	a2,3(a0)
    27e4:	06f59663          	bne	a1,a5,2850 <my_PD_Valve_Receive+0x74>
    27e8:	05500793          	li	a5,85
    27ec:	06f61263          	bne	a2,a5,2850 <my_PD_Valve_Receive+0x74>
    27f0:	2118                	lbu	a4,0(a0)
    27f2:	4785                	li	a5,1
    27f4:	02f71963          	bne	a4,a5,2826 <my_PD_Valve_Receive+0x4a>
    27f8:	311c                	lbu	a5,1(a0)
    27fa:	4689                	li	a3,2
    27fc:	00d78f63          	beq	a5,a3,281a <my_PD_Valve_Receive+0x3e>
    2800:	00f6e463          	bltu	a3,a5,2808 <my_PD_Valve_Receive+0x2c>
    2804:	cb81                	beqz	a5,2814 <my_PD_Valve_Receive+0x38>
    2806:	8082                	ret
    2808:	17f1                	addi	a5,a5,-4
    280a:	0ff7f793          	andi	a5,a5,255
    280e:	00f6f963          	bgeu	a3,a5,2820 <my_PD_Valve_Receive+0x44>
    2812:	8082                	ret
    2814:	86e18b23          	sb	a4,-1930(gp) # 2000028e <valve_close_timeout>
    2818:	8082                	ret
    281a:	86e18c23          	sb	a4,-1928(gp) # 20000290 <valve_open_timeout>
    281e:	8082                	ret
    2820:	86e18a23          	sb	a4,-1932(gp) # 2000028c <valve_check_error>
    2824:	8082                	ret
    2826:	4789                	li	a5,2
    2828:	00f71c63          	bne	a4,a5,2840 <my_PD_Valve_Receive+0x64>
    282c:	311c                	lbu	a5,1(a0)
    282e:	4017d713          	srai	a4,a5,0x1
    2832:	8b05                	andi	a4,a4,1
    2834:	86e18ba3          	sb	a4,-1929(gp) # 2000028f <valve_open_switch>
    2838:	8b85                	andi	a5,a5,1
    283a:	86f18aa3          	sb	a5,-1931(gp) # 2000028d <valve_close_switch>
    283e:	8082                	ret
    2840:	478d                	li	a5,3
    2842:	02f71163          	bne	a4,a5,2864 <my_PD_Valve_Receive+0x88>
    2846:	311c                	lbu	a5,1(a0)
    2848:	ef91                	bnez	a5,2864 <my_PD_Valve_Receive+0x88>
    284a:	86018a23          	sb	zero,-1932(gp) # 2000028c <valve_check_error>
    284e:	8082                	ret
    2850:	8e1fd2ef          	jal	t0,130 <__riscv_save_0>
    2854:	00006537          	lui	a0,0x6
    2858:	be050513          	addi	a0,a0,-1056 # 5be0 <_read+0x668>
    285c:	157010ef          	jal	ra,41b2 <iprintf>
    2860:	8f5fd06f          	j	154 <__riscv_restore_0>
    2864:	8082                	ret

00002866 <my_SPI_Device_Init>:
    2866:	8cbfd2ef          	jal	t0,130 <__riscv_save_0>
    286a:	7179                	addi	sp,sp,-48
    286c:	40011437          	lui	s0,0x40011
    2870:	4485                	li	s1,1
    2872:	47c1                	li	a5,16
    2874:	080c                	addi	a1,sp,16
    2876:	80040513          	addi	a0,s0,-2048 # 40010800 <_eusrstack+0x2000b800>
    287a:	c83e                	sw	a5,16(sp)
    287c:	cc3e                	sw	a5,24(sp)
    287e:	ca26                	sw	s1,20(sp)
    2880:	ce02                	sw	zero,28(sp)
    2882:	d002                	sw	zero,32(sp)
    2884:	d202                	sw	zero,36(sp)
    2886:	d402                	sw	zero,40(sp)
    2888:	02011623          	sh	zero,44(sp)
    288c:	c402                	sw	zero,8(sp)
    288e:	c602                	sw	zero,12(sp)
    2890:	7dd000ef          	jal	ra,386c <GPIO_Init>
    2894:	02000793          	li	a5,32
    2898:	4961                	li	s2,24
    289a:	080c                	addi	a1,sp,16
    289c:	80040513          	addi	a0,s0,-2048
    28a0:	c83e                	sw	a5,16(sp)
    28a2:	cc4a                	sw	s2,24(sp)
    28a4:	ca26                	sw	s1,20(sp)
    28a6:	7c7000ef          	jal	ra,386c <GPIO_Init>
    28aa:	04000793          	li	a5,64
    28ae:	c83e                	sw	a5,16(sp)
    28b0:	080c                	addi	a1,sp,16
    28b2:	4791                	li	a5,4
    28b4:	80040513          	addi	a0,s0,-2048
    28b8:	cc3e                	sw	a5,24(sp)
    28ba:	7b3000ef          	jal	ra,386c <GPIO_Init>
    28be:	08000793          	li	a5,128
    28c2:	080c                	addi	a1,sp,16
    28c4:	80040513          	addi	a0,s0,-2048
    28c8:	c83e                	sw	a5,16(sp)
    28ca:	cc4a                	sw	s2,24(sp)
    28cc:	ca26                	sw	s1,20(sp)
    28ce:	79f000ef          	jal	ra,386c <GPIO_Init>
    28d2:	4585                	li	a1,1
    28d4:	40013537          	lui	a0,0x40013
    28d8:	532010ef          	jal	ra,3e0a <SPI_SSOutputCmd>
    28dc:	010407b7          	lui	a5,0x1040
    28e0:	ce3e                	sw	a5,28(sp)
    28e2:	03000793          	li	a5,48
    28e6:	086c                	addi	a1,sp,28
    28e8:	d43e                	sw	a5,40(sp)
    28ea:	40013537          	lui	a0,0x40013
    28ee:	479d                	li	a5,7
    28f0:	02f11623          	sh	a5,44(sp)
    28f4:	d002                	sw	zero,32(sp)
    28f6:	d202                	sw	zero,36(sp)
    28f8:	4a0010ef          	jal	ra,3d98 <SPI_Init>
    28fc:	02100793          	li	a5,33
    2900:	847c                	sh	a5,8(sp)
    2902:	0028                	addi	a0,sp,8
    2904:	4789                	li	a5,2
    2906:	855c                	sb	a5,10(sp)
    2908:	c626                	sw	s1,12(sp)
    290a:	3c0010ef          	jal	ra,3cca <NVIC_Init>
    290e:	4585                	li	a1,1
    2910:	40013537          	lui	a0,0x40013
    2914:	4b6010ef          	jal	ra,3dca <SPI_Cmd>
    2918:	4605                	li	a2,1
    291a:	45c1                	li	a1,16
    291c:	80040513          	addi	a0,s0,-2048
    2920:	0c4010ef          	jal	ra,39e4 <GPIO_WriteBit>
    2924:	6145                	addi	sp,sp,48
    2926:	82ffd06f          	j	154 <__riscv_restore_0>

0000292a <my_SPI_Master_Init>:
    292a:	807fd2ef          	jal	t0,130 <__riscv_save_0>
    292e:	88018323          	sb	zero,-1914(gp) # 2000029e <spi_thread>
    2932:	5dc00713          	li	a4,1500
    2936:	880181a3          	sb	zero,-1917(gp) # 2000029b <spi_snk_flag>
    293a:	88e19423          	sh	a4,-1912(gp) # 200002a0 <spi_time>
    293e:	f29ff0ef          	jal	ra,2866 <my_SPI_Device_Init>
    2942:	813fd06f          	j	154 <__riscv_restore_0>

00002946 <my_spi_read>:
    2946:	feafd2ef          	jal	t0,130 <__riscv_save_0>
    294a:	84aa                	mv	s1,a0
    294c:	40011537          	lui	a0,0x40011
    2950:	842e                	mv	s0,a1
    2952:	4601                	li	a2,0
    2954:	45c1                	li	a1,16
    2956:	80050513          	addi	a0,a0,-2048 # 40010800 <_eusrstack+0x2000b800>
    295a:	08a010ef          	jal	ra,39e4 <GPIO_WriteBit>
    295e:	7a418793          	addi	a5,gp,1956 # 200011bc <spi_test_buff>
    2962:	577d                	li	a4,-1
    2964:	a384                	sb	s1,0(a5)
    2966:	b398                	sb	a4,1(a5)
    2968:	a3b8                	sb	a4,2(a5)
    296a:	88018123          	sb	zero,-1918(gp) # 2000029a <spi_flag>
    296e:	88018223          	sb	zero,-1916(gp) # 2000029c <spi_test_addr>
    2972:	888182a3          	sb	s0,-1915(gp) # 2000029d <spi_test_size>
    2976:	4605                	li	a2,1
    2978:	07100593          	li	a1,113
    297c:	40013537          	lui	a0,0x40013
    2980:	86018da3          	sb	zero,-1925(gp) # 20000293 <receive_buff_size>
    2984:	460010ef          	jal	ra,3de4 <SPI_I2S_ITConfig>
    2988:	fccfd06f          	j	154 <__riscv_restore_0>

0000298c <my_spi_write>:
    298c:	fa4fd2ef          	jal	t0,130 <__riscv_save_0>
    2990:	892a                	mv	s2,a0
    2992:	40011537          	lui	a0,0x40011
    2996:	1141                	addi	sp,sp,-16
    2998:	8432                	mv	s0,a2
    299a:	84ae                	mv	s1,a1
    299c:	4601                	li	a2,0
    299e:	45c1                	li	a1,16
    29a0:	80050513          	addi	a0,a0,-2048 # 40010800 <_eusrstack+0x2000b800>
    29a4:	c636                	sw	a3,12(sp)
    29a6:	03e010ef          	jal	ra,39e4 <GPIO_WriteBit>
    29aa:	7a418793          	addi	a5,gp,1956 # 200011bc <spi_test_buff>
    29ae:	46b2                	lw	a3,12(sp)
    29b0:	01278023          	sb	s2,0(a5) # 1040000 <_data_lma+0x1039f6c>
    29b4:	b384                	sb	s1,1(a5)
    29b6:	a3a0                	sb	s0,2(a5)
    29b8:	b3a0                	sb	s0,3(a5)
    29ba:	4705                	li	a4,1
    29bc:	88e18123          	sb	a4,-1918(gp) # 2000029a <spi_flag>
    29c0:	88018223          	sb	zero,-1916(gp) # 2000029c <spi_test_addr>
    29c4:	88d182a3          	sb	a3,-1915(gp) # 2000029d <spi_test_size>
    29c8:	4605                	li	a2,1
    29ca:	07100593          	li	a1,113
    29ce:	40013537          	lui	a0,0x40013
    29d2:	86018da3          	sb	zero,-1925(gp) # 20000293 <receive_buff_size>
    29d6:	40e010ef          	jal	ra,3de4 <SPI_I2S_ITConfig>
    29da:	0141                	addi	sp,sp,16
    29dc:	f78fd06f          	j	154 <__riscv_restore_0>

000029e0 <SPI1_IRQHandler>:
    29e0:	1141                	addi	sp,sp,-16
    29e2:	c622                	sw	s0,12(sp)
    29e4:	8821c783          	lbu	a5,-1918(gp) # 2000029a <spi_flag>
    29e8:	88218413          	addi	s0,gp,-1918 # 2000029a <spi_flag>
    29ec:	0fd7f793          	andi	a5,a5,253
    29f0:	e3a5                	bnez	a5,2a50 <SPI1_IRQHandler+0x70>
    29f2:	06000593          	li	a1,96
    29f6:	40013537          	lui	a0,0x40013
    29fa:	428010ef          	jal	ra,3e22 <SPI_I2S_GetITStatus>
    29fe:	c929                	beqz	a0,2a50 <SPI1_IRQHandler+0x70>
    2a00:	40013537          	lui	a0,0x40013
    2a04:	402010ef          	jal	ra,3e06 <SPI_I2S_ReceiveData>
    2a08:	87b18693          	addi	a3,gp,-1925 # 20000293 <receive_buff_size>
    2a0c:	2290                	lbu	a2,0(a3)
    2a0e:	79818793          	addi	a5,gp,1944 # 200011b0 <receive_buff>
    2a12:	97b2                	add	a5,a5,a2
    2a14:	00160713          	addi	a4,a2,1
    2a18:	a388                	sb	a0,0(a5)
    2a1a:	201c                	lbu	a5,0(s0)
    2a1c:	0ff77713          	andi	a4,a4,255
    2a20:	a298                	sb	a4,0(a3)
    2a22:	ebad                	bnez	a5,2a94 <SPI1_IRQHandler+0xb4>
    2a24:	8851c783          	lbu	a5,-1915(gp) # 2000029d <spi_test_size>
    2a28:	08e79763          	bne	a5,a4,2ab6 <SPI1_IRQHandler+0xd6>
    2a2c:	4601                	li	a2,0
    2a2e:	06000593          	li	a1,96
    2a32:	40013537          	lui	a0,0x40013
    2a36:	3ae010ef          	jal	ra,3de4 <SPI_I2S_ITConfig>
    2a3a:	40011537          	lui	a0,0x40011
    2a3e:	4605                	li	a2,1
    2a40:	45c1                	li	a1,16
    2a42:	80050513          	addi	a0,a0,-2048 # 40010800 <_eusrstack+0x2000b800>
    2a46:	79f000ef          	jal	ra,39e4 <GPIO_WriteBit>
    2a4a:	4705                	li	a4,1
    2a4c:	86e18e23          	sb	a4,-1924(gp) # 20000294 <receive_flag>
    2a50:	07100593          	li	a1,113
    2a54:	40013537          	lui	a0,0x40013
    2a58:	3ca010ef          	jal	ra,3e22 <SPI_I2S_GetITStatus>
    2a5c:	c905                	beqz	a0,2a8c <SPI1_IRQHandler+0xac>
    2a5e:	88418713          	addi	a4,gp,-1916 # 2000029c <spi_test_addr>
    2a62:	2314                	lbu	a3,0(a4)
    2a64:	8851c783          	lbu	a5,-1915(gp) # 2000029d <spi_test_size>
    2a68:	04d79d63          	bne	a5,a3,2ac2 <SPI1_IRQHandler+0xe2>
    2a6c:	4601                	li	a2,0
    2a6e:	07100593          	li	a1,113
    2a72:	40013537          	lui	a0,0x40013
    2a76:	36e010ef          	jal	ra,3de4 <SPI_I2S_ITConfig>
    2a7a:	4605                	li	a2,1
    2a7c:	06000593          	li	a1,96
    2a80:	40013537          	lui	a0,0x40013
    2a84:	360010ef          	jal	ra,3de4 <SPI_I2S_ITConfig>
    2a88:	4789                	li	a5,2
    2a8a:	a01c                	sb	a5,0(s0)
    2a8c:	4432                	lw	s0,12(sp)
    2a8e:	0141                	addi	sp,sp,16
    2a90:	30200073          	mret
    2a94:	4709                	li	a4,2
    2a96:	02e79063          	bne	a5,a4,2ab6 <SPI1_IRQHandler+0xd6>
    2a9a:	8841c703          	lbu	a4,-1916(gp) # 2000029c <spi_test_addr>
    2a9e:	8851c783          	lbu	a5,-1915(gp) # 2000029d <spi_test_size>
    2aa2:	00f71a63          	bne	a4,a5,2ab6 <SPI1_IRQHandler+0xd6>
    2aa6:	4705                	li	a4,1
    2aa8:	86e18e23          	sb	a4,-1924(gp) # 20000294 <receive_flag>
    2aac:	06400713          	li	a4,100
    2ab0:	88e19423          	sh	a4,-1912(gp) # 200002a0 <spi_time>
    2ab4:	bf71                	j	2a50 <SPI1_IRQHandler+0x70>
    2ab6:	4581                	li	a1,0
    2ab8:	40013537          	lui	a0,0x40013
    2abc:	346010ef          	jal	ra,3e02 <SPI_I2S_SendData>
    2ac0:	bf41                	j	2a50 <SPI1_IRQHandler+0x70>
    2ac2:	00168793          	addi	a5,a3,1
    2ac6:	a31c                	sb	a5,0(a4)
    2ac8:	7a418793          	addi	a5,gp,1956 # 200011bc <spi_test_buff>
    2acc:	97b6                	add	a5,a5,a3
    2ace:	238c                	lbu	a1,0(a5)
    2ad0:	40013537          	lui	a0,0x40013
    2ad4:	32e010ef          	jal	ra,3e02 <SPI_I2S_SendData>
    2ad8:	201c                	lbu	a5,0(s0)
    2ada:	fbcd                	bnez	a5,2a8c <SPI1_IRQHandler+0xac>
    2adc:	4601                	li	a2,0
    2ade:	07100593          	li	a1,113
    2ae2:	40013537          	lui	a0,0x40013
    2ae6:	2fe010ef          	jal	ra,3de4 <SPI_I2S_ITConfig>
    2aea:	4605                	li	a2,1
    2aec:	06000593          	li	a1,96
    2af0:	40013537          	lui	a0,0x40013
    2af4:	2f0010ef          	jal	ra,3de4 <SPI_I2S_ITConfig>
    2af8:	bf51                	j	2a8c <SPI1_IRQHandler+0xac>

00002afa <my_spi_SNK>:
    2afa:	e36fd2ef          	jal	t0,130 <__riscv_save_0>
    2afe:	4705                	li	a4,1
    2b00:	88e181a3          	sb	a4,-1917(gp) # 2000029b <spi_snk_flag>
    2b04:	88a18023          	sb	a0,-1920(gp) # 20000298 <spi_PDO_Len>
    2b08:	00006537          	lui	a0,0x6
    2b0c:	d0050513          	addi	a0,a0,-768 # 5d00 <_read+0x788>
    2b10:	86b19f23          	sh	a1,-1922(gp) # 20000296 <spi_Current>
    2b14:	7b2010ef          	jal	ra,42c6 <puts>
    2b18:	e3cfd06f          	j	154 <__riscv_restore_0>

00002b1c <my_spi_SRC>:
    2b1c:	8082                	ret

00002b1e <my_spi_disconnect>:
    2b1e:	8082                	ret

00002b20 <my_time_tick>:
    2b20:	211e                	lhu	a5,0(a0)
    2b22:	8471c703          	lbu	a4,-1977(gp) # 2000025f <Tmr_Ms_Dlt>
    2b26:	00f77963          	bgeu	a4,a5,2b38 <my_time_tick+0x18>
    2b2a:	8f99                	sub	a5,a5,a4
    2b2c:	07c2                	slli	a5,a5,0x10
    2b2e:	83c1                	srli	a5,a5,0x10
    2b30:	a11e                	sh	a5,0(a0)
    2b32:	0017b513          	seqz	a0,a5
    2b36:	8082                	ret
    2b38:	4781                	li	a5,0
    2b3a:	bfdd                	j	2b30 <my_time_tick+0x10>

00002b3c <my_spi_receive_show>:
    2b3c:	87c18793          	addi	a5,gp,-1924 # 20000294 <receive_flag>
    2b40:	2394                	lbu	a3,0(a5)
    2b42:	4705                	li	a4,1
    2b44:	04e69263          	bne	a3,a4,2b88 <my_spi_receive_show+0x4c>
    2b48:	dcefd2ef          	jal	t0,116 <__riscv_save_4>
    2b4c:	00078023          	sb	zero,0(a5)
    2b50:	4401                	li	s0,0
    2b52:	79818493          	addi	s1,gp,1944 # 200011b0 <receive_buff>
    2b56:	000069b7          	lui	s3,0x6
    2b5a:	87b1c783          	lbu	a5,-1925(gp) # 20000293 <receive_buff_size>
    2b5e:	00f46a63          	bltu	s0,a5,2b72 <my_spi_receive_show+0x36>
    2b62:	00005537          	lui	a0,0x5
    2b66:	66450513          	addi	a0,a0,1636 # 5664 <_read+0xec>
    2b6a:	75c010ef          	jal	ra,42c6 <puts>
    2b6e:	ddcfd06f          	j	14a <__riscv_restore_4>
    2b72:	008487b3          	add	a5,s1,s0
    2b76:	238c                	lbu	a1,0(a5)
    2b78:	d2098513          	addi	a0,s3,-736 # 5d20 <_read+0x7a8>
    2b7c:	0405                	addi	s0,s0,1
    2b7e:	634010ef          	jal	ra,41b2 <iprintf>
    2b82:	0ff47413          	andi	s0,s0,255
    2b86:	bfd1                	j	2b5a <my_spi_receive_show+0x1e>
    2b88:	8082                	ret

00002b8a <my_spi_open_valve>:
    2b8a:	4705                	li	a4,1
    2b8c:	88e180a3          	sb	a4,-1919(gp) # 20000299 <spi_control_status>
    2b90:	8082                	ret

00002b92 <my_spi_close_valve>:
    2b92:	4709                	li	a4,2
    2b94:	88e180a3          	sb	a4,-1919(gp) # 20000299 <spi_control_status>
    2b98:	8082                	ret

00002b9a <my_spi_check_valve>:
    2b9a:	470d                	li	a4,3
    2b9c:	88e180a3          	sb	a4,-1919(gp) # 20000299 <spi_control_status>
    2ba0:	8082                	ret

00002ba2 <my_spi_handle>:
    2ba2:	d74fd2ef          	jal	t0,116 <__riscv_save_4>
    2ba6:	8861c783          	lbu	a5,-1914(gp) # 2000029e <spi_thread>
    2baa:	4731                	li	a4,12
    2bac:	04f76563          	bltu	a4,a5,2bf6 <my_spi_handle+0x54>
    2bb0:	6719                	lui	a4,0x6
    2bb2:	078a                	slli	a5,a5,0x2
    2bb4:	ccc70713          	addi	a4,a4,-820 # 5ccc <_read+0x754>
    2bb8:	97ba                	add	a5,a5,a4
    2bba:	439c                	lw	a5,0(a5)
    2bbc:	88618413          	addi	s0,gp,-1914 # 2000029e <spi_thread>
    2bc0:	8782                	jr	a5
    2bc2:	88818513          	addi	a0,gp,-1912 # 200002a0 <spi_time>
    2bc6:	f5bff0ef          	jal	ra,2b20 <my_time_tick>
    2bca:	88818493          	addi	s1,gp,-1912 # 200002a0 <spi_time>
    2bce:	c911                	beqz	a0,2be2 <my_spi_handle+0x40>
    2bd0:	4785                	li	a5,1
    2bd2:	4589                	li	a1,2
    2bd4:	4505                	li	a0,1
    2bd6:	a01c                	sb	a5,0(s0)
    2bd8:	d6fff0ef          	jal	ra,2946 <my_spi_read>
    2bdc:	1f400793          	li	a5,500
    2be0:	a09e                	sh	a5,0(s1)
    2be2:	8831c703          	lbu	a4,-1917(gp) # 2000029b <spi_snk_flag>
    2be6:	4785                	li	a5,1
    2be8:	00f71763          	bne	a4,a5,2bf6 <my_spi_handle+0x54>
    2bec:	4795                	li	a5,5
    2bee:	a01c                	sb	a5,0(s0)
    2bf0:	1f400793          	li	a5,500
    2bf4:	a09e                	sh	a5,0(s1)
    2bf6:	d54fd06f          	j	14a <__riscv_restore_4>
    2bfa:	88818513          	addi	a0,gp,-1912 # 200002a0 <spi_time>
    2bfe:	f23ff0ef          	jal	ra,2b20 <my_time_tick>
    2c02:	88818493          	addi	s1,gp,-1912 # 200002a0 <spi_time>
    2c06:	c511                	beqz	a0,2c12 <my_spi_handle+0x70>
    2c08:	1f400793          	li	a5,500
    2c0c:	a09e                	sh	a5,0(s1)
    2c0e:	00040023          	sb	zero,0(s0)
    2c12:	87c1c703          	lbu	a4,-1924(gp) # 20000294 <receive_flag>
    2c16:	4785                	li	a5,1
    2c18:	fcf71fe3          	bne	a4,a5,2bf6 <my_spi_handle+0x54>
    2c1c:	f21ff0ef          	jal	ra,2b3c <my_spi_receive_show>
    2c20:	7991c703          	lbu	a4,1945(gp) # 200011b1 <receive_buff+0x1>
    2c24:	47c5                	li	a5,17
    2c26:	fcf718e3          	bne	a4,a5,2bf6 <my_spi_handle+0x54>
    2c2a:	4789                	li	a5,2
    2c2c:	b7c9                	j	2bee <my_spi_handle+0x4c>
    2c2e:	88818493          	addi	s1,gp,-1912 # 200002a0 <spi_time>
    2c32:	88818513          	addi	a0,gp,-1912 # 200002a0 <spi_time>
    2c36:	eebff0ef          	jal	ra,2b20 <my_time_tick>
    2c3a:	dd55                	beqz	a0,2bf6 <my_spi_handle+0x54>
    2c3c:	458d                	li	a1,3
    2c3e:	4515                	li	a0,5
    2c40:	d07ff0ef          	jal	ra,2946 <my_spi_read>
    2c44:	1f400793          	li	a5,500
    2c48:	a09e                	sh	a5,0(s1)
    2c4a:	478d                	li	a5,3
    2c4c:	a01c                	sb	a5,0(s0)
    2c4e:	b765                	j	2bf6 <my_spi_handle+0x54>
    2c50:	88818493          	addi	s1,gp,-1912 # 200002a0 <spi_time>
    2c54:	88818513          	addi	a0,gp,-1912 # 200002a0 <spi_time>
    2c58:	ec9ff0ef          	jal	ra,2b20 <my_time_tick>
    2c5c:	c511                	beqz	a0,2c68 <my_spi_handle+0xc6>
    2c5e:	1f400793          	li	a5,500
    2c62:	a09e                	sh	a5,0(s1)
    2c64:	4789                	li	a5,2
    2c66:	a01c                	sb	a5,0(s0)
    2c68:	87c1c703          	lbu	a4,-1924(gp) # 20000294 <receive_flag>
    2c6c:	4785                	li	a5,1
    2c6e:	f8f714e3          	bne	a4,a5,2bf6 <my_spi_handle+0x54>
    2c72:	ecbff0ef          	jal	ra,2b3c <my_spi_receive_show>
    2c76:	79818713          	addi	a4,gp,1944 # 200011b0 <receive_buff>
    2c7a:	3308                	lbu	a0,1(a4)
    2c7c:	4691                	li	a3,4
    2c7e:	00155793          	srli	a5,a0,0x1
    2c82:	17fd                	addi	a5,a5,-1
    2c84:	0ff7f793          	andi	a5,a5,255
    2c88:	02f6e363          	bltu	a3,a5,2cae <my_spi_handle+0x10c>
    2c8c:	232c                	lbu	a1,2(a4)
    2c8e:	a014                	sb	a3,0(s0)
    2c90:	d78fd0ef          	jal	ra,208 <my_set_Vbus_Current>
    2c94:	9101d783          	lhu	a5,-1776(gp) # 20000328 <PD_Ctl+0x18>
    2c98:	8b89                	andi	a5,a5,2
    2c9a:	e791                	bnez	a5,2ca6 <my_spi_handle+0x104>
    2c9c:	f7aff0ef          	jal	ra,2416 <set_PD_STATUS_SRC>
    2ca0:	dd4ff0ef          	jal	ra,2274 <set_sc8726_select>
    2ca4:	bf89                	j	2bf6 <my_spi_handle+0x54>
    2ca6:	4505                	li	a0,1
    2ca8:	da4fd0ef          	jal	ra,24c <my_switch_state_pd>
    2cac:	bfd5                	j	2ca0 <my_spi_handle+0xfe>
    2cae:	00006537          	lui	a0,0x6
    2cb2:	d0c50513          	addi	a0,a0,-756 # 5d0c <_read+0x794>
    2cb6:	610010ef          	jal	ra,42c6 <puts>
    2cba:	bf35                	j	2bf6 <my_spi_handle+0x54>
    2cbc:	88818493          	addi	s1,gp,-1912 # 200002a0 <spi_time>
    2cc0:	88818513          	addi	a0,gp,-1912 # 200002a0 <spi_time>
    2cc4:	e5dff0ef          	jal	ra,2b20 <my_time_tick>
    2cc8:	f20507e3          	beqz	a0,2bf6 <my_spi_handle+0x54>
    2ccc:	87e1d603          	lhu	a2,-1922(gp) # 20000296 <spi_Current>
    2cd0:	8801c583          	lbu	a1,-1920(gp) # 20000298 <spi_PDO_Len>
    2cd4:	468d                	li	a3,3
    2cd6:	08600513          	li	a0,134
    2cda:	00159793          	slli	a5,a1,0x1
    2cde:	00865593          	srli	a1,a2,0x8
    2ce2:	95be                	add	a1,a1,a5
    2ce4:	0ff67613          	andi	a2,a2,255
    2ce8:	0ff5f593          	andi	a1,a1,255
    2cec:	ca1ff0ef          	jal	ra,298c <my_spi_write>
    2cf0:	4799                	li	a5,6
    2cf2:	bdf5                	j	2bee <my_spi_handle+0x4c>
    2cf4:	87c1c703          	lbu	a4,-1924(gp) # 20000294 <receive_flag>
    2cf8:	4785                	li	a5,1
    2cfa:	88818493          	addi	s1,gp,-1912 # 200002a0 <spi_time>
    2cfe:	88818513          	addi	a0,gp,-1912 # 200002a0 <spi_time>
    2d02:	02f71563          	bne	a4,a5,2d2c <my_spi_handle+0x18a>
    2d06:	e1bff0ef          	jal	ra,2b20 <my_time_tick>
    2d0a:	ee0506e3          	beqz	a0,2bf6 <my_spi_handle+0x54>
    2d0e:	e2fff0ef          	jal	ra,2b3c <my_spi_receive_show>
    2d12:	40011537          	lui	a0,0x40011
    2d16:	4605                	li	a2,1
    2d18:	45c1                	li	a1,16
    2d1a:	80050513          	addi	a0,a0,-2048 # 40010800 <_eusrstack+0x2000b800>
    2d1e:	4c7000ef          	jal	ra,39e4 <GPIO_WriteBit>
    2d22:	479d                	li	a5,7
    2d24:	a01c                	sb	a5,0(s0)
    2d26:	3e800793          	li	a5,1000
    2d2a:	b5e9                	j	2bf4 <my_spi_handle+0x52>
    2d2c:	df5ff0ef          	jal	ra,2b20 <my_time_tick>
    2d30:	4795                	li	a5,5
    2d32:	f96d                	bnez	a0,2d24 <my_spi_handle+0x182>
    2d34:	b5c9                	j	2bf6 <my_spi_handle+0x54>
    2d36:	88818493          	addi	s1,gp,-1912 # 200002a0 <spi_time>
    2d3a:	88818513          	addi	a0,gp,-1912 # 200002a0 <spi_time>
    2d3e:	de3ff0ef          	jal	ra,2b20 <my_time_tick>
    2d42:	ea050ae3          	beqz	a0,2bf6 <my_spi_handle+0x54>
    2d46:	47a1                	li	a5,8
    2d48:	a01c                	sb	a5,0(s0)
    2d4a:	1f400793          	li	a5,500
    2d4e:	a09e                	sh	a5,0(s1)
    2d50:	4589                	li	a1,2
    2d52:	4505                	li	a0,1
    2d54:	bf3ff0ef          	jal	ra,2946 <my_spi_read>
    2d58:	bd79                	j	2bf6 <my_spi_handle+0x54>
    2d5a:	88818513          	addi	a0,gp,-1912 # 200002a0 <spi_time>
    2d5e:	dc3ff0ef          	jal	ra,2b20 <my_time_tick>
    2d62:	88818493          	addi	s1,gp,-1912 # 200002a0 <spi_time>
    2d66:	c511                	beqz	a0,2d72 <my_spi_handle+0x1d0>
    2d68:	3e800793          	li	a5,1000
    2d6c:	a09e                	sh	a5,0(s1)
    2d6e:	479d                	li	a5,7
    2d70:	a01c                	sb	a5,0(s0)
    2d72:	87c1c983          	lbu	s3,-1924(gp) # 20000294 <receive_flag>
    2d76:	4785                	li	a5,1
    2d78:	e6f99fe3          	bne	s3,a5,2bf6 <my_spi_handle+0x54>
    2d7c:	dc1ff0ef          	jal	ra,2b3c <my_spi_receive_show>
    2d80:	79818713          	addi	a4,gp,1944 # 200011b0 <receive_buff>
    2d84:	3318                	lbu	a4,1(a4)
    2d86:	02400693          	li	a3,36
    2d8a:	79818913          	addi	s2,gp,1944 # 200011b0 <receive_buff>
    2d8e:	07f77713          	andi	a4,a4,127
    2d92:	e6d712e3          	bne	a4,a3,2bf6 <my_spi_handle+0x54>
    2d96:	47a5                	li	a5,9
    2d98:	a01c                	sb	a5,0(s0)
    2d9a:	1f400793          	li	a5,500
    2d9e:	a09e                	sh	a5,0(s1)
    2da0:	6f6000ef          	jal	ra,3496 <get_valve_status>
    2da4:	e111                	bnez	a0,2da8 <my_spi_handle+0x206>
    2da6:	4989                	li	s3,2
    2da8:	893180a3          	sb	s3,-1919(gp) # 20000299 <spi_control_status>
    2dac:	00190783          	lb	a5,1(s2)
    2db0:	4505                	li	a0,1
    2db2:	0007c363          	bltz	a5,2db8 <my_spi_handle+0x216>
    2db6:	4501                	li	a0,0
    2db8:	8c1ff0ef          	jal	ra,2678 <my_Valve_Connect_SPI>
    2dbc:	bd2d                	j	2bf6 <my_spi_handle+0x54>
    2dbe:	88818513          	addi	a0,gp,-1912 # 200002a0 <spi_time>
    2dc2:	d5fff0ef          	jal	ra,2b20 <my_time_tick>
    2dc6:	88818993          	addi	s3,gp,-1912 # 200002a0 <spi_time>
    2dca:	88818913          	addi	s2,gp,-1912 # 200002a0 <spi_time>
    2dce:	c911                	beqz	a0,2de2 <my_spi_handle+0x240>
    2dd0:	47a9                	li	a5,10
    2dd2:	a01c                	sb	a5,0(s0)
    2dd4:	1f400793          	li	a5,500
    2dd8:	00f99023          	sh	a5,0(s3)
    2ddc:	458d                	li	a1,3
    2dde:	451d                	li	a0,7
    2de0:	bf95                	j	2d54 <my_spi_handle+0x1b2>
    2de2:	8811c783          	lbu	a5,-1919(gp) # 20000299 <spi_control_status>
    2de6:	88118493          	addi	s1,gp,-1919 # 20000299 <spi_control_status>
    2dea:	e00786e3          	beqz	a5,2bf6 <my_spi_handle+0x54>
    2dee:	4709                	li	a4,2
    2df0:	02e78f63          	beq	a5,a4,2e2e <my_spi_handle+0x28c>
    2df4:	470d                	li	a4,3
    2df6:	04e78063          	beq	a5,a4,2e36 <my_spi_handle+0x294>
    2dfa:	4705                	li	a4,1
    2dfc:	00e79963          	bne	a5,a4,2e0e <my_spi_handle+0x26c>
    2e00:	4689                	li	a3,2
    2e02:	4601                	li	a2,0
    2e04:	4585                	li	a1,1
    2e06:	08200513          	li	a0,130
    2e0a:	b83ff0ef          	jal	ra,298c <my_spi_write>
    2e0e:	209c                	lbu	a5,0(s1)
    2e10:	4709                	li	a4,2
    2e12:	17fd                	addi	a5,a5,-1
    2e14:	0ff7f793          	andi	a5,a5,255
    2e18:	00f76463          	bltu	a4,a5,2e20 <my_spi_handle+0x27e>
    2e1c:	47ad                	li	a5,11
    2e1e:	a01c                	sb	a5,0(s0)
    2e20:	1f400793          	li	a5,500
    2e24:	00f91023          	sh	a5,0(s2)
    2e28:	00048023          	sb	zero,0(s1)
    2e2c:	b3e9                	j	2bf6 <my_spi_handle+0x54>
    2e2e:	4689                	li	a3,2
    2e30:	4601                	li	a2,0
    2e32:	4581                	li	a1,0
    2e34:	bfc9                	j	2e06 <my_spi_handle+0x264>
    2e36:	4689                	li	a3,2
    2e38:	4601                	li	a2,0
    2e3a:	4585                	li	a1,1
    2e3c:	08300513          	li	a0,131
    2e40:	b7e9                	j	2e0a <my_spi_handle+0x268>
    2e42:	88818513          	addi	a0,gp,-1912 # 200002a0 <spi_time>
    2e46:	cdbff0ef          	jal	ra,2b20 <my_time_tick>
    2e4a:	88818913          	addi	s2,gp,-1912 # 200002a0 <spi_time>
    2e4e:	c909                	beqz	a0,2e60 <my_spi_handle+0x2be>
    2e50:	3e800793          	li	a5,1000
    2e54:	00f91023          	sh	a5,0(s2)
    2e58:	47a5                	li	a5,9
    2e5a:	a01c                	sb	a5,0(s0)
    2e5c:	927ff0ef          	jal	ra,2782 <my_Spi_Connect_Error>
    2e60:	87c1c703          	lbu	a4,-1924(gp) # 20000294 <receive_flag>
    2e64:	4785                	li	a5,1
    2e66:	d8f718e3          	bne	a4,a5,2bf6 <my_spi_handle+0x54>
    2e6a:	cd3ff0ef          	jal	ra,2b3c <my_spi_receive_show>
    2e6e:	79818493          	addi	s1,gp,1944 # 200011b0 <receive_buff>
    2e72:	308c                	lbu	a1,1(s1)
    2e74:	0fc00793          	li	a5,252
    2e78:	0fc5f713          	andi	a4,a1,252
    2e7c:	04f71263          	bne	a4,a5,2ec0 <my_spi_handle+0x31e>
    2e80:	4015d513          	srai	a0,a1,0x1
    2e84:	8905                	andi	a0,a0,1
    2e86:	8985                	andi	a1,a1,1
    2e88:	8f1ff0ef          	jal	ra,2778 <my_Valve_Set_Status>
    2e8c:	20a8                	lbu	a0,2(s1)
    2e8e:	850d                	srai	a0,a0,0x3
    2e90:	8905                	andi	a0,a0,1
    2e92:	8cfff0ef          	jal	ra,2760 <my_Valve_Set_power_error>
    2e96:	20a8                	lbu	a0,2(s1)
    2e98:	8509                	srai	a0,a0,0x2
    2e9a:	8905                	andi	a0,a0,1
    2e9c:	8cbff0ef          	jal	ra,2766 <my_Valve_Set_check_error>
    2ea0:	20a8                	lbu	a0,2(s1)
    2ea2:	8505                	srai	a0,a0,0x1
    2ea4:	8905                	andi	a0,a0,1
    2ea6:	8c7ff0ef          	jal	ra,276c <my_Valve_Set_open_timeout>
    2eaa:	20a8                	lbu	a0,2(s1)
    2eac:	8905                	andi	a0,a0,1
    2eae:	8c5ff0ef          	jal	ra,2772 <my_Valve_Set_close_timeout>
    2eb2:	47a5                	li	a5,9
    2eb4:	a01c                	sb	a5,0(s0)
    2eb6:	3e800793          	li	a5,1000
    2eba:	00f91023          	sh	a5,0(s2)
    2ebe:	bb25                	j	2bf6 <my_spi_handle+0x54>
    2ec0:	fc4ff0ef          	jal	ra,2684 <my_Valve_Disconnect>
    2ec4:	479d                	li	a5,7
    2ec6:	b7fd                	j	2eb4 <my_spi_handle+0x312>
    2ec8:	87c1c703          	lbu	a4,-1924(gp) # 20000294 <receive_flag>
    2ecc:	4785                	li	a5,1
    2ece:	88818493          	addi	s1,gp,-1912 # 200002a0 <spi_time>
    2ed2:	88818513          	addi	a0,gp,-1912 # 200002a0 <spi_time>
    2ed6:	02f71263          	bne	a4,a5,2efa <my_spi_handle+0x358>
    2eda:	c47ff0ef          	jal	ra,2b20 <my_time_tick>
    2ede:	d0050ce3          	beqz	a0,2bf6 <my_spi_handle+0x54>
    2ee2:	c5bff0ef          	jal	ra,2b3c <my_spi_receive_show>
    2ee6:	40011537          	lui	a0,0x40011
    2eea:	4605                	li	a2,1
    2eec:	45c1                	li	a1,16
    2eee:	80050513          	addi	a0,a0,-2048 # 40010800 <_eusrstack+0x2000b800>
    2ef2:	2f3000ef          	jal	ra,39e4 <GPIO_WriteBit>
    2ef6:	47a5                	li	a5,9
    2ef8:	b535                	j	2d24 <my_spi_handle+0x182>
    2efa:	c27ff0ef          	jal	ra,2b20 <my_time_tick>
    2efe:	ce050ce3          	beqz	a0,2bf6 <my_spi_handle+0x54>
    2f02:	47a5                	li	a5,9
    2f04:	a01c                	sb	a5,0(s0)
    2f06:	3e800793          	li	a5,1000
    2f0a:	a09e                	sh	a5,0(s1)
    2f0c:	877ff0ef          	jal	ra,2782 <my_Spi_Connect_Error>
    2f10:	b1dd                	j	2bf6 <my_spi_handle+0x54>
    2f12:	88818513          	addi	a0,gp,-1912 # 200002a0 <spi_time>
    2f16:	c0bff0ef          	jal	ra,2b20 <my_time_tick>
    2f1a:	88818913          	addi	s2,gp,-1912 # 200002a0 <spi_time>
    2f1e:	c909                	beqz	a0,2f30 <my_spi_handle+0x38e>
    2f20:	3e800793          	li	a5,1000
    2f24:	00f91023          	sh	a5,0(s2)
    2f28:	47a5                	li	a5,9
    2f2a:	a01c                	sb	a5,0(s0)
    2f2c:	857ff0ef          	jal	ra,2782 <my_Spi_Connect_Error>
    2f30:	87c1c703          	lbu	a4,-1924(gp) # 20000294 <receive_flag>
    2f34:	4785                	li	a5,1
    2f36:	ccf710e3          	bne	a4,a5,2bf6 <my_spi_handle+0x54>
    2f3a:	79818493          	addi	s1,gp,1944 # 200011b0 <receive_buff>
    2f3e:	bffff0ef          	jal	ra,2b3c <my_spi_receive_show>
    2f42:	3088                	lbu	a0,1(s1)
    2f44:	850d                	srai	a0,a0,0x3
    2f46:	8905                	andi	a0,a0,1
    2f48:	819ff0ef          	jal	ra,2760 <my_Valve_Set_power_error>
    2f4c:	3088                	lbu	a0,1(s1)
    2f4e:	8509                	srai	a0,a0,0x2
    2f50:	8905                	andi	a0,a0,1
    2f52:	815ff0ef          	jal	ra,2766 <my_Valve_Set_check_error>
    2f56:	3088                	lbu	a0,1(s1)
    2f58:	8505                	srai	a0,a0,0x1
    2f5a:	8905                	andi	a0,a0,1
    2f5c:	811ff0ef          	jal	ra,276c <my_Valve_Set_open_timeout>
    2f60:	3088                	lbu	a0,1(s1)
    2f62:	8905                	andi	a0,a0,1
    2f64:	80fff0ef          	jal	ra,2772 <my_Valve_Set_close_timeout>
    2f68:	3e800793          	li	a5,1000
    2f6c:	00f91023          	sh	a5,0(s2)
    2f70:	47a5                	li	a5,9
    2f72:	b9e9                	j	2c4c <my_spi_handle+0xaa>

00002f74 <led_create>:
    2f74:	9bcfd2ef          	jal	t0,130 <__riscv_save_0>
    2f78:	1141                	addi	sp,sp,-16
    2f7a:	842a                	mv	s0,a0
    2f7c:	8536                	mv	a0,a3
    2f7e:	c62e                	sw	a1,12(sp)
    2f80:	c436                	sw	a3,8(sp)
    2f82:	c232                	sw	a2,4(sp)
    2f84:	9602                	jalr	a2
    2f86:	45b2                	lw	a1,12(sp)
    2f88:	4612                	lw	a2,4(sp)
    2f8a:	46a2                	lw	a3,8(sp)
    2f8c:	14b42a23          	sw	a1,340(s0)
    2f90:	14c42c23          	sw	a2,344(s0)
    2f94:	16d42023          	sw	a3,352(s0)
    2f98:	0141                	addi	sp,sp,16
    2f9a:	9bafd06f          	j	154 <__riscv_restore_0>

00002f9e <led_set_mode>:
    2f9e:	978fd2ef          	jal	t0,116 <__riscv_save_4>
    2fa2:	11450493          	addi	s1,a0,276
    2fa6:	842a                	mv	s0,a0
    2fa8:	8932                	mv	s2,a2
    2faa:	a52e                	sh	a1,10(a0)
    2fac:	a54e                	sh	a1,12(a0)
    2fae:	04000613          	li	a2,64
    2fb2:	4581                	li	a1,0
    2fb4:	8526                	mv	a0,s1
    2fb6:	9aafd0ef          	jal	ra,160 <memset>
    2fba:	854a                	mv	a0,s2
    2fbc:	316010ef          	jal	ra,42d2 <strlen>
    2fc0:	862a                	mv	a2,a0
    2fc2:	85ca                	mv	a1,s2
    2fc4:	8526                	mv	a0,s1
    2fc6:	13a010ef          	jal	ra,4100 <memcpy>
    2fca:	10000613          	li	a2,256
    2fce:	00041423          	sh	zero,8(s0)
    2fd2:	00042823          	sw	zero,16(s0)
    2fd6:	00040123          	sb	zero,2(s0)
    2fda:	00041323          	sh	zero,6(s0)
    2fde:	4581                	li	a1,0
    2fe0:	01440513          	addi	a0,s0,20
    2fe4:	97cfd0ef          	jal	ra,160 <memset>
    2fe8:	87a6                	mv	a5,s1
    2fea:	02c00693          	li	a3,44
    2fee:	00078703          	lb	a4,0(a5)
    2ff2:	e31d                	bnez	a4,3018 <led_set_mode+0x7a>
    2ff4:	fff78703          	lb	a4,-1(a5)
    2ff8:	02c00793          	li	a5,44
    2ffc:	00f70563          	beq	a4,a5,3006 <led_set_mode+0x68>
    3000:	207e                	lhu	a5,6(s0)
    3002:	0785                	addi	a5,a5,1
    3004:	a07e                	sh	a5,6(s0)
    3006:	4901                	li	s2,0
    3008:	49a9                	li	s3,10
    300a:	02c00a13          	li	s4,44
    300e:	00048783          	lb	a5,0(s1)
    3012:	eb91                	bnez	a5,3026 <led_set_mode+0x88>
    3014:	936fd06f          	j	14a <__riscv_restore_4>
    3018:	00d71563          	bne	a4,a3,3022 <led_set_mode+0x84>
    301c:	207a                	lhu	a4,6(s0)
    301e:	0705                	addi	a4,a4,1
    3020:	a07a                	sh	a4,6(s0)
    3022:	0785                	addi	a5,a5,1
    3024:	b7e9                	j	2fee <led_set_mode+0x50>
    3026:	8526                	mv	a0,s1
    3028:	0d2010ef          	jal	ra,40fa <atol>
    302c:	033577b3          	remu	a5,a0,s3
    3030:	03355533          	divu	a0,a0,s3
    3034:	00f037b3          	snez	a5,a5
    3038:	953e                	add	a0,a0,a5
    303a:	00490793          	addi	a5,s2,4
    303e:	078a                	slli	a5,a5,0x2
    3040:	97a2                	add	a5,a5,s0
    3042:	0905                	addi	s2,s2,1
    3044:	c3c8                	sw	a0,4(a5)
    3046:	0ff97913          	andi	s2,s2,255
    304a:	00048783          	lb	a5,0(s1)
    304e:	01478463          	beq	a5,s4,3056 <led_set_mode+0xb8>
    3052:	e781                	bnez	a5,305a <led_set_mode+0xbc>
    3054:	14fd                	addi	s1,s1,-1
    3056:	0485                	addi	s1,s1,1
    3058:	bf5d                	j	300e <led_set_mode+0x70>
    305a:	0485                	addi	s1,s1,1
    305c:	b7fd                	j	304a <led_set_mode+0xac>

0000305e <led_start>:
    305e:	253e                	lhu	a5,10(a0)
    3060:	a55e                	sh	a5,12(a0)
    3062:	88c1a683          	lw	a3,-1908(gp) # 200002a4 <first_handle>
    3066:	88c18793          	addi	a5,gp,-1908 # 200002a4 <first_handle>
    306a:	8736                	mv	a4,a3
    306c:	e711                	bnez	a4,3078 <led_start+0x1a>
    306e:	16d52223          	sw	a3,356(a0)
    3072:	c388                	sw	a0,0(a5)
    3074:	4501                	li	a0,0
    3076:	8082                	ret
    3078:	00a70563          	beq	a4,a0,3082 <led_start+0x24>
    307c:	16472703          	lw	a4,356(a4)
    3080:	b7f5                	j	306c <led_start+0xe>
    3082:	4505                	li	a0,1
    3084:	8082                	ret

00003086 <led_stop>:
    3086:	8aafd2ef          	jal	t0,130 <__riscv_save_0>
    308a:	15852783          	lw	a5,344(a0)
    308e:	842a                	mv	s0,a0
    3090:	16052503          	lw	a0,352(a0)
    3094:	9782                	jalr	a5
    3096:	88c18793          	addi	a5,gp,-1908 # 200002a4 <first_handle>
    309a:	4398                	lw	a4,0(a5)
    309c:	e319                	bnez	a4,30a2 <led_stop+0x1c>
    309e:	8b6fd06f          	j	154 <__riscv_restore_0>
    30a2:	00871663          	bne	a4,s0,30ae <led_stop+0x28>
    30a6:	16442703          	lw	a4,356(s0)
    30aa:	c398                	sw	a4,0(a5)
    30ac:	b7fd                	j	309a <led_stop+0x14>
    30ae:	16470793          	addi	a5,a4,356
    30b2:	b7e5                	j	309a <led_stop+0x14>

000030b4 <led_ticks>:
    30b4:	87cfd2ef          	jal	t0,130 <__riscv_save_0>
    30b8:	88c1a403          	lw	s0,-1908(gp) # 200002a4 <first_handle>
    30bc:	0ff00493          	li	s1,255
    30c0:	4905                	li	s2,1
    30c2:	e019                	bnez	s0,30c8 <led_ticks+0x14>
    30c4:	890fd06f          	j	154 <__riscv_restore_0>
    30c8:	2456                	lhu	a3,12(s0)
    30ca:	cab5                	beqz	a3,313e <led_ticks+0x8a>
    30cc:	241e                	lhu	a5,8(s0)
    30ce:	0785                	addi	a5,a5,1
    30d0:	07c2                	slli	a5,a5,0x10
    30d2:	83c1                	srli	a5,a5,0x10
    30d4:	a41e                	sh	a5,8(s0)
    30d6:	17fd                	addi	a5,a5,-1
    30d8:	4818                	lw	a4,16(s0)
    30da:	02e79e63          	bne	a5,a4,3116 <led_ticks+0x62>
    30de:	2038                	lbu	a4,2(s0)
    30e0:	2072                	lhu	a2,6(s0)
    30e2:	04c77363          	bgeu	a4,a2,3128 <led_ticks+0x74>
    30e6:	00470613          	addi	a2,a4,4
    30ea:	060a                	slli	a2,a2,0x2
    30ec:	9622                	add	a2,a2,s0
    30ee:	4250                	lw	a2,4(a2)
    30f0:	00c785b3          	add	a1,a5,a2
    30f4:	c80c                	sw	a1,16(s0)
    30f6:	e601                	bnez	a2,30fe <led_ticks+0x4a>
    30f8:	0705                	addi	a4,a4,1
    30fa:	a038                	sb	a4,2(s0)
    30fc:	bff1                	j	30d8 <led_ticks+0x24>
    30fe:	8b05                	andi	a4,a4,1
    3100:	16042503          	lw	a0,352(s0)
    3104:	cf01                	beqz	a4,311c <led_ticks+0x68>
    3106:	15842783          	lw	a5,344(s0)
    310a:	9782                	jalr	a5
    310c:	000400a3          	sb	zero,1(s0)
    3110:	203c                	lbu	a5,2(s0)
    3112:	0785                	addi	a5,a5,1
    3114:	a03c                	sb	a5,2(s0)
    3116:	16442403          	lw	s0,356(s0)
    311a:	b765                	j	30c2 <led_ticks+0xe>
    311c:	15442783          	lw	a5,340(s0)
    3120:	9782                	jalr	a5
    3122:	012400a3          	sb	s2,1(s0)
    3126:	b7ed                	j	3110 <led_ticks+0x5c>
    3128:	00040123          	sb	zero,2(s0)
    312c:	00042823          	sw	zero,16(s0)
    3130:	00041423          	sh	zero,8(s0)
    3134:	fe9681e3          	beq	a3,s1,3116 <led_ticks+0x62>
    3138:	16fd                	addi	a3,a3,-1
    313a:	a456                	sh	a3,12(s0)
    313c:	bfe9                	j	3116 <led_ticks+0x62>
    313e:	8522                	mv	a0,s0
    3140:	f47ff0ef          	jal	ra,3086 <led_stop>
    3144:	15c42783          	lw	a5,348(s0)
    3148:	d7f9                	beqz	a5,3116 <led_ticks+0x62>
    314a:	8522                	mv	a0,s0
    314c:	9782                	jalr	a5
    314e:	b7e1                	j	3116 <led_ticks+0x62>

00003150 <SystemInit>:
    3150:	400217b7          	lui	a5,0x40021
    3154:	4398                	lw	a4,0(a5)
    3156:	f90006b7          	lui	a3,0xf9000
    315a:	f5f68693          	addi	a3,a3,-161 # f8ffff5f <_eusrstack+0xd8ffaf5f>
    315e:	00176713          	ori	a4,a4,1
    3162:	c398                	sw	a4,0(a5)
    3164:	43d8                	lw	a4,4(a5)
    3166:	05076713          	ori	a4,a4,80
    316a:	c3d8                	sw	a4,4(a5)
    316c:	43d8                	lw	a4,4(a5)
    316e:	8f75                	and	a4,a4,a3
    3170:	c3d8                	sw	a4,4(a5)
    3172:	40022737          	lui	a4,0x40022
    3176:	4314                	lw	a3,0(a4)
    3178:	9af1                	andi	a3,a3,-4
    317a:	c314                	sw	a3,0(a4)
    317c:	4314                	lw	a3,0(a4)
    317e:	0026e693          	ori	a3,a3,2
    3182:	c314                	sw	a3,0(a4)
    3184:	43d8                	lw	a4,4(a5)
    3186:	f0f77713          	andi	a4,a4,-241
    318a:	c3d8                	sw	a4,4(a5)
    318c:	43d8                	lw	a4,4(a5)
    318e:	c3d8                	sw	a4,4(a5)
    3190:	8082                	ret

00003192 <SystemCoreClockUpdate>:
    3192:	400216b7          	lui	a3,0x40021
    3196:	42dc                	lw	a5,4(a3)
    3198:	8391                	srli	a5,a5,0x4
    319a:	00f7f713          	andi	a4,a5,15
    319e:	200007b7          	lui	a5,0x20000
    31a2:	02878793          	addi	a5,a5,40 # 20000028 <AHBPrescTable>
    31a6:	97ba                	add	a5,a5,a4
    31a8:	239c                	lbu	a5,0(a5)
    31aa:	42d4                	lw	a3,4(a3)
    31ac:	02dc7737          	lui	a4,0x2dc7
    31b0:	0ff7f793          	andi	a5,a5,255
    31b4:	c0070713          	addi	a4,a4,-1024 # 2dc6c00 <_data_lma+0x2dc0b6c>
    31b8:	0806f693          	andi	a3,a3,128
    31bc:	00f75633          	srl	a2,a4,a5
    31c0:	e299                	bnez	a3,31c6 <SystemCoreClockUpdate+0x34>
    31c2:	02f75633          	divu	a2,a4,a5
    31c6:	80c1ac23          	sw	a2,-2024(gp) # 20000230 <SystemCoreClock>
    31ca:	8082                	ret

000031cc <valve_open_timer_callback>:
    31cc:	f65fc2ef          	jal	t0,130 <__riscv_save_0>
    31d0:	40011537          	lui	a0,0x40011
    31d4:	45c1                	li	a1,16
    31d6:	c0050513          	addi	a0,a0,-1024 # 40010c00 <_eusrstack+0x2000bc00>
    31da:	001000ef          	jal	ra,39da <GPIO_ReadInputDataBit>
    31de:	842a                	mv	s0,a0
    31e0:	da4ff0ef          	jal	ra,2784 <my_Valve_Get_Error>
    31e4:	00257493          	andi	s1,a0,2
    31e8:	00946733          	or	a4,s0,s1
    31ec:	0ff77713          	andi	a4,a4,255
    31f0:	81c18793          	addi	a5,gp,-2020 # 20000234 <valve_valid>
    31f4:	ef09                	bnez	a4,320e <valve_open_timer_callback+0x42>
    31f6:	4705                	li	a4,1
    31f8:	a398                	sb	a4,0(a5)
    31fa:	59c000ef          	jal	ra,3796 <valvefail_warning_disable>
    31fe:	00006537          	lui	a0,0x6
    3202:	df050513          	addi	a0,a0,-528 # 5df0 <_read+0x878>
    3206:	0c0010ef          	jal	ra,42c6 <puts>
    320a:	f4bfc06f          	j	154 <__riscv_restore_0>
    320e:	00078023          	sb	zero,0(a5)
    3212:	c419                	beqz	s0,3220 <valve_open_timer_callback+0x54>
    3214:	8a01a503          	lw	a0,-1888(gp) # 200002b8 <InternalValveFailEvent>
    3218:	8a018793          	addi	a5,gp,-1888 # 200002b8 <InternalValveFailEvent>
    321c:	43cc                	lw	a1,4(a5)
    321e:	298d                	jal	3690 <warning_enable>
    3220:	c499                	beqz	s1,322e <valve_open_timer_callback+0x62>
    3222:	8981a503          	lw	a0,-1896(gp) # 200002b0 <ExternalValveFailEvent>
    3226:	89818793          	addi	a5,gp,-1896 # 200002b0 <ExternalValveFailEvent>
    322a:	43cc                	lw	a1,4(a5)
    322c:	2195                	jal	3690 <warning_enable>
    322e:	00006537          	lui	a0,0x6
    3232:	8626                	mv	a2,s1
    3234:	85a2                	mv	a1,s0
    3236:	e1c50513          	addi	a0,a0,-484 # 5e1c <_read+0x8a4>
    323a:	779000ef          	jal	ra,41b2 <iprintf>
    323e:	b7f1                	j	320a <valve_open_timer_callback+0x3e>

00003240 <valve_close_timer_callback>:
    3240:	ef1fc2ef          	jal	t0,130 <__riscv_save_0>
    3244:	40011537          	lui	a0,0x40011
    3248:	10000593          	li	a1,256
    324c:	c0050513          	addi	a0,a0,-1024 # 40010c00 <_eusrstack+0x2000bc00>
    3250:	78a000ef          	jal	ra,39da <GPIO_ReadInputDataBit>
    3254:	842a                	mv	s0,a0
    3256:	d2eff0ef          	jal	ra,2784 <my_Valve_Get_Error>
    325a:	00157493          	andi	s1,a0,1
    325e:	00946733          	or	a4,s0,s1
    3262:	0ff77713          	andi	a4,a4,255
    3266:	81c18793          	addi	a5,gp,-2020 # 20000234 <valve_valid>
    326a:	ef01                	bnez	a4,3282 <valve_close_timer_callback+0x42>
    326c:	4705                	li	a4,1
    326e:	a398                	sb	a4,0(a5)
    3270:	231d                	jal	3796 <valvefail_warning_disable>
    3272:	00006537          	lui	a0,0x6
    3276:	d6850513          	addi	a0,a0,-664 # 5d68 <_read+0x7f0>
    327a:	04c010ef          	jal	ra,42c6 <puts>
    327e:	ed7fc06f          	j	154 <__riscv_restore_0>
    3282:	00078023          	sb	zero,0(a5)
    3286:	c419                	beqz	s0,3294 <valve_close_timer_callback+0x54>
    3288:	8a01a503          	lw	a0,-1888(gp) # 200002b8 <InternalValveFailEvent>
    328c:	8a018793          	addi	a5,gp,-1888 # 200002b8 <InternalValveFailEvent>
    3290:	43cc                	lw	a1,4(a5)
    3292:	2efd                	jal	3690 <warning_enable>
    3294:	c499                	beqz	s1,32a2 <valve_close_timer_callback+0x62>
    3296:	8981a503          	lw	a0,-1896(gp) # 200002b0 <ExternalValveFailEvent>
    329a:	89818793          	addi	a5,gp,-1896 # 200002b0 <ExternalValveFailEvent>
    329e:	43cc                	lw	a1,4(a5)
    32a0:	2ec5                	jal	3690 <warning_enable>
    32a2:	00006537          	lui	a0,0x6
    32a6:	8626                	mv	a2,s1
    32a8:	85a2                	mv	a1,s0
    32aa:	d9450513          	addi	a0,a0,-620 # 5d94 <_read+0x81c>
    32ae:	705000ef          	jal	ra,41b2 <iprintf>
    32b2:	b7f1                	j	327e <valve_close_timer_callback+0x3e>

000032b4 <valve_turn_control.part.2>:
    32b4:	e7dfc2ef          	jal	t0,130 <__riscv_save_0>
    32b8:	40011537          	lui	a0,0x40011
    32bc:	4601                	li	a2,0
    32be:	6585                	lui	a1,0x1
    32c0:	c0050513          	addi	a0,a0,-1024 # 40010c00 <_eusrstack+0x2000bc00>
    32c4:	88018923          	sb	zero,-1902(gp) # 200002aa <valve_status>
    32c8:	71c000ef          	jal	ra,39e4 <GPIO_WriteBit>
    32cc:	e89fc06f          	j	154 <__riscv_restore_0>

000032d0 <valve_turn_control>:
    32d0:	e61fc2ef          	jal	t0,130 <__riscv_save_0>
    32d4:	00055663          	bgez	a0,32e0 <valve_turn_control+0x10>
    32d8:	fddff0ef          	jal	ra,32b4 <valve_turn_control.part.2>
    32dc:	e79fc06f          	j	154 <__riscv_restore_0>
    32e0:	40011537          	lui	a0,0x40011
    32e4:	4705                	li	a4,1
    32e6:	4605                	li	a2,1
    32e8:	6585                	lui	a1,0x1
    32ea:	c0050513          	addi	a0,a0,-1024 # 40010c00 <_eusrstack+0x2000bc00>
    32ee:	88e18923          	sb	a4,-1902(gp) # 200002aa <valve_status>
    32f2:	6f2000ef          	jal	ra,39e4 <GPIO_WriteBit>
    32f6:	b7dd                	j	32dc <valve_turn_control+0xc>

000032f8 <valva_check_timer_callback>:
    32f8:	e39fc2ef          	jal	t0,130 <__riscv_save_0>
    32fc:	89118713          	addi	a4,gp,-1903 # 200002a9 <valve_check_tick>
    3300:	231c                	lbu	a5,0(a4)
    3302:	00178693          	addi	a3,a5,1
    3306:	a314                	sb	a3,0(a4)
    3308:	4751                	li	a4,20
    330a:	08e78c63          	beq	a5,a4,33a2 <valva_check_timer_callback+0xaa>
    330e:	00f76863          	bltu	a4,a5,331e <valva_check_timer_callback+0x26>
    3312:	cf9d                	beqz	a5,3350 <valva_check_timer_callback+0x58>
    3314:	473d                	li	a4,15
    3316:	04e78d63          	beq	a5,a4,3370 <valva_check_timer_callback+0x78>
    331a:	e3bfc06f          	j	154 <__riscv_restore_0>
    331e:	4771                	li	a4,28
    3320:	08e78e63          	beq	a5,a4,33bc <valva_check_timer_callback+0xc4>
    3324:	4779                	li	a4,30
    3326:	fee79ae3          	bne	a5,a4,331a <valva_check_timer_callback+0x22>
    332a:	7a018823          	sb	zero,1968(gp) # 200011c8 <valve_check_timer>
    332e:	c56ff0ef          	jal	ra,2784 <my_Valve_Get_Error>
    3332:	e545                	bnez	a0,33da <valva_check_timer_callback+0xe2>
    3334:	00006537          	lui	a0,0x6
    3338:	d4850513          	addi	a0,a0,-696 # 5d48 <_read+0x7d0>
    333c:	78b000ef          	jal	ra,42c6 <puts>
    3340:	8901c783          	lbu	a5,-1904(gp) # 200002a8 <internal_valve_warning>
    3344:	fbf9                	bnez	a5,331a <valva_check_timer_callback+0x22>
    3346:	4705                	li	a4,1
    3348:	80e18e23          	sb	a4,-2020(gp) # 20000234 <valve_valid>
    334c:	21a9                	jal	3796 <valvefail_warning_disable>
    334e:	b7f1                	j	331a <valva_check_timer_callback+0x22>
    3350:	8921c703          	lbu	a4,-1902(gp) # 200002aa <valve_status>
    3354:	4785                	li	a5,1
    3356:	00f71a63          	bne	a4,a5,336a <valva_check_timer_callback+0x72>
    335a:	4505                	li	a0,1
    335c:	88018823          	sb	zero,-1904(gp) # 200002a8 <internal_valve_warning>
    3360:	f71ff0ef          	jal	ra,32d0 <valve_turn_control>
    3364:	bbaff0ef          	jal	ra,271e <my_Valve_Controls_Check>
    3368:	bf4d                	j	331a <valva_check_timer_callback+0x22>
    336a:	7a018823          	sb	zero,1968(gp) # 200011c8 <valve_check_timer>
    336e:	b775                	j	331a <valva_check_timer_callback+0x22>
    3370:	40011537          	lui	a0,0x40011
    3374:	45c1                	li	a1,16
    3376:	c0050513          	addi	a0,a0,-1024 # 40010c00 <_eusrstack+0x2000bc00>
    337a:	660000ef          	jal	ra,39da <GPIO_ReadInputDataBit>
    337e:	e501                	bnez	a0,3386 <valva_check_timer_callback+0x8e>
    3380:	f35ff0ef          	jal	ra,32b4 <valve_turn_control.part.2>
    3384:	bf59                	j	331a <valva_check_timer_callback+0x22>
    3386:	80018e23          	sb	zero,-2020(gp) # 20000234 <valve_valid>
    338a:	4705                	li	a4,1
    338c:	88e18823          	sb	a4,-1904(gp) # 200002a8 <internal_valve_warning>
    3390:	7a018823          	sb	zero,1968(gp) # 200011c8 <valve_check_timer>
    3394:	8a01a503          	lw	a0,-1888(gp) # 200002b8 <InternalValveFailEvent>
    3398:	8a018793          	addi	a5,gp,-1888 # 200002b8 <InternalValveFailEvent>
    339c:	43cc                	lw	a1,4(a5)
    339e:	2ccd                	jal	3690 <warning_enable>
    33a0:	bfad                	j	331a <valva_check_timer_callback+0x22>
    33a2:	40011537          	lui	a0,0x40011
    33a6:	45c1                	li	a1,16
    33a8:	c0050513          	addi	a0,a0,-1024 # 40010c00 <_eusrstack+0x2000bc00>
    33ac:	62e000ef          	jal	ra,39da <GPIO_ReadInputDataBit>
    33b0:	4785                	li	a5,1
    33b2:	fcf51ae3          	bne	a0,a5,3386 <valva_check_timer_callback+0x8e>
    33b6:	f1bff0ef          	jal	ra,32d0 <valve_turn_control>
    33ba:	b785                	j	331a <valva_check_timer_callback+0x22>
    33bc:	40011537          	lui	a0,0x40011
    33c0:	45c1                	li	a1,16
    33c2:	c0050513          	addi	a0,a0,-1024 # 40010c00 <_eusrstack+0x2000bc00>
    33c6:	614000ef          	jal	ra,39da <GPIO_ReadInputDataBit>
    33ca:	fd55                	bnez	a0,3386 <valva_check_timer_callback+0x8e>
    33cc:	00006537          	lui	a0,0x6
    33d0:	d2850513          	addi	a0,a0,-728 # 5d28 <_read+0x7b0>
    33d4:	6f3000ef          	jal	ra,42c6 <puts>
    33d8:	b789                	j	331a <valva_check_timer_callback+0x22>
    33da:	80018e23          	sb	zero,-2020(gp) # 20000234 <valve_valid>
    33de:	8981a503          	lw	a0,-1896(gp) # 200002b0 <ExternalValveFailEvent>
    33e2:	89818793          	addi	a5,gp,-1896 # 200002b0 <ExternalValveFailEvent>
    33e6:	bf5d                	j	339c <valva_check_timer_callback+0xa4>

000033e8 <valve_open>:
    33e8:	d49fc2ef          	jal	t0,130 <__riscv_save_0>
    33ec:	81c1c783          	lbu	a5,-2020(gp) # 20000234 <valve_valid>
    33f0:	e789                	bnez	a5,33fa <valve_open+0x12>
    33f2:	a84fe0ef          	jal	ra,1676 <led_valve_fail>
    33f6:	d5ffc06f          	j	154 <__riscv_restore_0>
    33fa:	efffe0ef          	jal	ra,22f8 <pd_chip_lock_voltage_get>
    33fe:	4789                	li	a5,2
    3400:	fea7d9e3          	bge	a5,a0,33f2 <valve_open+0xa>
    3404:	4405                	li	s0,1
    3406:	8281a023          	sw	s0,-2016(gp) # 20000238 <DeviceStatus>
    340a:	c1cfe0ef          	jal	ra,1826 <led_valve_on>
    340e:	b84fe0ef          	jal	ra,1792 <beep_once>
    3412:	a90ff0ef          	jal	ra,26a2 <my_Valve_Controls_Open>
    3416:	4505                	li	a0,1
    3418:	eb9ff0ef          	jal	ra,32d0 <valve_turn_control>
    341c:	7c018223          	sb	zero,1988(gp) # 200011dc <valve_close_timer>
    3420:	7e018623          	sb	zero,2028(gp) # 20001204 <valve_open_once_timer>
    3424:	200017b7          	lui	a5,0x20001
    3428:	21878793          	addi	a5,a5,536 # 20001218 <valve_open_timer>
    342c:	0007a223          	sw	zero,4(a5)
    3430:	a380                	sb	s0,0(a5)
    3432:	7d818793          	addi	a5,gp,2008 # 200011f0 <valve_detect_timer>
    3436:	0007a223          	sw	zero,4(a5)
    343a:	a380                	sb	s0,0(a5)
    343c:	bf6d                	j	33f6 <valve_open+0xe>

0000343e <valve_open_once_timer_callback>:
    343e:	cf3fc2ef          	jal	t0,130 <__riscv_save_0>
    3442:	fa7ff0ef          	jal	ra,33e8 <valve_open>
    3446:	d0ffc06f          	j	154 <__riscv_restore_0>

0000344a <valve_close>:
    344a:	ce7fc2ef          	jal	t0,130 <__riscv_save_0>
    344e:	81c1c783          	lbu	a5,-2020(gp) # 20000234 <valve_valid>
    3452:	eb89                	bnez	a5,3464 <valve_close+0x1a>
    3454:	a22fe0ef          	jal	ra,1676 <led_valve_fail>
    3458:	e5dff0ef          	jal	ra,32b4 <valve_turn_control.part.2>
    345c:	a84ff0ef          	jal	ra,26e0 <my_Valve_Controls_Close>
    3460:	cf5fc06f          	j	154 <__riscv_restore_0>
    3464:	8201a023          	sw	zero,-2016(gp) # 20000238 <DeviceStatus>
    3468:	b12fe0ef          	jal	ra,177a <beep_key_down>
    346c:	be6fe0ef          	jal	ra,1852 <led_valve_off>
    3470:	a70ff0ef          	jal	ra,26e0 <my_Valve_Controls_Close>
    3474:	e41ff0ef          	jal	ra,32b4 <valve_turn_control.part.2>
    3478:	200017b7          	lui	a5,0x20001
    347c:	20078c23          	sb	zero,536(a5) # 20001218 <valve_open_timer>
    3480:	7e018623          	sb	zero,2028(gp) # 20001204 <valve_open_once_timer>
    3484:	7c018c23          	sb	zero,2008(gp) # 200011f0 <valve_detect_timer>
    3488:	7c418793          	addi	a5,gp,1988 # 200011dc <valve_close_timer>
    348c:	4705                	li	a4,1
    348e:	0007a223          	sw	zero,4(a5)
    3492:	a398                	sb	a4,0(a5)
    3494:	b7f1                	j	3460 <valve_close+0x16>

00003496 <get_valve_status>:
    3496:	8921c503          	lbu	a0,-1902(gp) # 200002aa <valve_status>
    349a:	8082                	ret

0000349c <valve_check>:
    349c:	880188a3          	sb	zero,-1903(gp) # 200002a9 <valve_check_tick>
    34a0:	200017b7          	lui	a5,0x20001
    34a4:	20078c23          	sb	zero,536(a5) # 20001218 <valve_open_timer>
    34a8:	7c018223          	sb	zero,1988(gp) # 200011dc <valve_close_timer>
    34ac:	7c018c23          	sb	zero,2008(gp) # 200011f0 <valve_detect_timer>
    34b0:	7b018793          	addi	a5,gp,1968 # 200011c8 <valve_check_timer>
    34b4:	4705                	li	a4,1
    34b6:	0007a223          	sw	zero,4(a5)
    34ba:	a398                	sb	a4,0(a5)
    34bc:	8082                	ret

000034be <valve_detect_timer_callback>:
    34be:	c73fc2ef          	jal	t0,130 <__riscv_save_0>
    34c2:	fdbff0ef          	jal	ra,349c <valve_check>
    34c6:	c8ffc06f          	j	154 <__riscv_restore_0>

000034ca <valve_timer_check>:
    34ca:	211c                	lbu	a5,0(a0)
    34cc:	c795                	beqz	a5,34f8 <valve_timer_check+0x2e>
    34ce:	415c                	lw	a5,4(a0)
    34d0:	00178713          	addi	a4,a5,1
    34d4:	c158                	sw	a4,4(a0)
    34d6:	4518                	lw	a4,8(a0)
    34d8:	02e7e063          	bltu	a5,a4,34f8 <valve_timer_check+0x2e>
    34dc:	c55fc2ef          	jal	t0,130 <__riscv_save_0>
    34e0:	255c                	lbu	a5,12(a0)
    34e2:	cb81                	beqz	a5,34f2 <valve_timer_check+0x28>
    34e4:	00052223          	sw	zero,4(a0)
    34e8:	491c                	lw	a5,16(a0)
    34ea:	4501                	li	a0,0
    34ec:	9782                	jalr	a5
    34ee:	c67fc06f          	j	154 <__riscv_restore_0>
    34f2:	00050023          	sb	zero,0(a0)
    34f6:	bfcd                	j	34e8 <valve_timer_check+0x1e>
    34f8:	8082                	ret

000034fa <valve_handle>:
    34fa:	89418793          	addi	a5,gp,-1900 # 200002ac <valve_tick>
    34fe:	4398                	lw	a4,0(a5)
    3500:	cf0d                	beqz	a4,353a <valve_handle+0x40>
    3502:	c2ffc2ef          	jal	t0,130 <__riscv_save_0>
    3506:	20001537          	lui	a0,0x20001
    350a:	21850513          	addi	a0,a0,536 # 20001218 <valve_open_timer>
    350e:	0007a023          	sw	zero,0(a5)
    3512:	fb9ff0ef          	jal	ra,34ca <valve_timer_check>
    3516:	7ec18513          	addi	a0,gp,2028 # 20001204 <valve_open_once_timer>
    351a:	fb1ff0ef          	jal	ra,34ca <valve_timer_check>
    351e:	7c418513          	addi	a0,gp,1988 # 200011dc <valve_close_timer>
    3522:	fa9ff0ef          	jal	ra,34ca <valve_timer_check>
    3526:	7d818513          	addi	a0,gp,2008 # 200011f0 <valve_detect_timer>
    352a:	fa1ff0ef          	jal	ra,34ca <valve_timer_check>
    352e:	7b018513          	addi	a0,gp,1968 # 200011c8 <valve_check_timer>
    3532:	f99ff0ef          	jal	ra,34ca <valve_timer_check>
    3536:	c1ffc06f          	j	154 <__riscv_restore_0>
    353a:	8082                	ret

0000353c <valve_init>:
    353c:	bdbfc2ef          	jal	t0,116 <__riscv_save_4>
    3540:	1141                	addi	sp,sp,-16
    3542:	400114b7          	lui	s1,0x40011
    3546:	4405                	li	s0,1
    3548:	10000793          	li	a5,256
    354c:	4991                	li	s3,4
    354e:	004c                	addi	a1,sp,4
    3550:	c0048513          	addi	a0,s1,-1024 # 40010c00 <_eusrstack+0x2000bc00>
    3554:	c23e                	sw	a5,4(sp)
    3556:	c64e                	sw	s3,12(sp)
    3558:	c422                	sw	s0,8(sp)
    355a:	2e09                	jal	386c <GPIO_Init>
    355c:	4941                	li	s2,16
    355e:	004c                	addi	a1,sp,4
    3560:	c0048513          	addi	a0,s1,-1024
    3564:	c24a                	sw	s2,4(sp)
    3566:	c64e                	sw	s3,12(sp)
    3568:	c422                	sw	s0,8(sp)
    356a:	2609                	jal	386c <GPIO_Init>
    356c:	6785                	lui	a5,0x1
    356e:	004c                	addi	a1,sp,4
    3570:	c0048513          	addi	a0,s1,-1024
    3574:	c23e                	sw	a5,4(sp)
    3576:	c64a                	sw	s2,12(sp)
    3578:	c422                	sw	s0,8(sp)
    357a:	2ccd                	jal	386c <GPIO_Init>
    357c:	4601                	li	a2,0
    357e:	6585                	lui	a1,0x1
    3580:	c0048513          	addi	a0,s1,-1024
    3584:	2185                	jal	39e4 <GPIO_WriteBit>
    3586:	200017b7          	lui	a5,0x20001
    358a:	671d                	lui	a4,0x7
    358c:	000036b7          	lui	a3,0x3
    3590:	21878793          	addi	a5,a5,536 # 20001218 <valve_open_timer>
    3594:	53070713          	addi	a4,a4,1328 # 7530 <_data_lma+0x149c>
    3598:	1cc68693          	addi	a3,a3,460 # 31cc <valve_open_timer_callback>
    359c:	c798                	sw	a4,8(a5)
    359e:	cb94                	sw	a3,16(a5)
    35a0:	00078023          	sb	zero,0(a5)
    35a4:	00078623          	sb	zero,12(a5)
    35a8:	7c418793          	addi	a5,gp,1988 # 200011dc <valve_close_timer>
    35ac:	c798                	sw	a4,8(a5)
    35ae:	00003737          	lui	a4,0x3
    35b2:	24070713          	addi	a4,a4,576 # 3240 <valve_close_timer_callback>
    35b6:	cb98                	sw	a4,16(a5)
    35b8:	00078023          	sb	zero,0(a5)
    35bc:	00078623          	sb	zero,12(a5)
    35c0:	00049737          	lui	a4,0x49
    35c4:	7d818793          	addi	a5,gp,2008 # 200011f0 <valve_detect_timer>
    35c8:	3e070713          	addi	a4,a4,992 # 493e0 <_data_lma+0x4334c>
    35cc:	c798                	sw	a4,8(a5)
    35ce:	00003737          	lui	a4,0x3
    35d2:	4be70713          	addi	a4,a4,1214 # 34be <valve_detect_timer_callback>
    35d6:	cb98                	sw	a4,16(a5)
    35d8:	00078023          	sb	zero,0(a5)
    35dc:	00078623          	sb	zero,12(a5)
    35e0:	7ec18793          	addi	a5,gp,2028 # 20001204 <valve_open_once_timer>
    35e4:	7d000713          	li	a4,2000
    35e8:	c798                	sw	a4,8(a5)
    35ea:	00003737          	lui	a4,0x3
    35ee:	43e70713          	addi	a4,a4,1086 # 343e <valve_open_once_timer_callback>
    35f2:	cb98                	sw	a4,16(a5)
    35f4:	7b018713          	addi	a4,gp,1968 # 200011c8 <valve_check_timer>
    35f8:	3e800693          	li	a3,1000
    35fc:	c714                	sw	a3,8(a4)
    35fe:	000036b7          	lui	a3,0x3
    3602:	2f868693          	addi	a3,a3,760 # 32f8 <valva_check_timer_callback>
    3606:	00078623          	sb	zero,12(a5)
    360a:	00070023          	sb	zero,0(a4)
    360e:	a740                	sb	s0,12(a4)
    3610:	cb14                	sw	a3,16(a4)
    3612:	0007a223          	sw	zero,4(a5)
    3616:	a380                	sb	s0,0(a5)
    3618:	0141                	addi	sp,sp,16
    361a:	b31fc06f          	j	14a <__riscv_restore_4>

0000361e <MasterSensorLostEventCallback>:
    361e:	b13fc2ef          	jal	t0,130 <__riscv_save_0>
    3622:	980fe0ef          	jal	ra,17a2 <led_valve_on_pause>
    3626:	8c4fe0ef          	jal	ra,16ea <led_master_lost_start>
    362a:	4715                	li	a4,5
    362c:	82e1a023          	sw	a4,-2016(gp) # 20000238 <DeviceStatus>
    3630:	b25fc06f          	j	154 <__riscv_restore_0>

00003634 <MasterSensorLeakEventCallback>:
    3634:	afdfc2ef          	jal	t0,130 <__riscv_save_0>
    3638:	e13ff0ef          	jal	ra,344a <valve_close>
    363c:	a26fe0ef          	jal	ra,1862 <led_warn_off>
    3640:	8e6fe0ef          	jal	ra,1726 <led_water_alarm_start>
    3644:	4719                	li	a4,6
    3646:	82e1a023          	sw	a4,-2016(gp) # 20000238 <DeviceStatus>
    364a:	b0bfc06f          	j	154 <__riscv_restore_0>

0000364e <MasterLowTempEventCallback>:
    364e:	ae3fc2ef          	jal	t0,130 <__riscv_save_0>
    3652:	df9ff0ef          	jal	ra,344a <valve_close>
    3656:	97cfe0ef          	jal	ra,17d2 <led_ntc_alarm>
    365a:	4721                	li	a4,8
    365c:	82e1a023          	sw	a4,-2016(gp) # 20000238 <DeviceStatus>
    3660:	af5fc06f          	j	154 <__riscv_restore_0>

00003664 <InternalValveFailEventCallback>:
    3664:	acdfc2ef          	jal	t0,130 <__riscv_save_0>
    3668:	93afe0ef          	jal	ra,17a2 <led_valve_on_pause>
    366c:	842fe0ef          	jal	ra,16ae <led_moto_fail_start>
    3670:	470d                	li	a4,3
    3672:	82e1a023          	sw	a4,-2016(gp) # 20000238 <DeviceStatus>
    3676:	adffc06f          	j	154 <__riscv_restore_0>

0000367a <ExternalValveFailEventCallback>:
    367a:	ab7fc2ef          	jal	t0,130 <__riscv_save_0>
    367e:	924fe0ef          	jal	ra,17a2 <led_valve_on_pause>
    3682:	82cfe0ef          	jal	ra,16ae <led_moto_fail_start>
    3686:	4711                	li	a4,4
    3688:	82e1a023          	sw	a4,-2016(gp) # 20000238 <DeviceStatus>
    368c:	ac9fc06f          	j	154 <__riscv_restore_0>

00003690 <warning_enable>:
    3690:	aa1fc2ef          	jal	t0,130 <__riscv_save_0>
    3694:	8c018793          	addi	a5,gp,-1856 # 200002d8 <NowEvent>
    3698:	23b8                	lbu	a4,2(a5)
    369a:	1141                	addi	sp,sp,-16
    369c:	01055613          	srli	a2,a0,0x10
    36a0:	c42a                	sw	a0,8(sp)
    36a2:	0ff67613          	andi	a2,a2,255
    36a6:	02e66563          	bltu	a2,a4,36d0 <warning_enable+0x40>
    36aa:	8480                	lbu	s0,9(sp)
    36ac:	a3b0                	sb	a2,2(a5)
    36ae:	a380                	sb	s0,0(a5)
    36b0:	c591                	beqz	a1,36bc <warning_enable+0x2c>
    36b2:	c3cc                	sw	a1,4(a5)
    36b4:	4501                	li	a0,0
    36b6:	c232                	sw	a2,4(sp)
    36b8:	9582                	jalr	a1
    36ba:	4612                	lw	a2,4(sp)
    36bc:	00006537          	lui	a0,0x6
    36c0:	85a2                	mv	a1,s0
    36c2:	e7850513          	addi	a0,a0,-392 # 5e78 <_read+0x900>
    36c6:	2ed000ef          	jal	ra,41b2 <iprintf>
    36ca:	0141                	addi	sp,sp,16
    36cc:	a89fc06f          	j	154 <__riscv_restore_0>
    36d0:	00006537          	lui	a0,0x6
    36d4:	85ba                	mv	a1,a4
    36d6:	eb850513          	addi	a0,a0,-328 # 5eb8 <_read+0x940>
    36da:	b7f5                	j	36c6 <warning_enable+0x36>

000036dc <warning_event_bind>:
    36dc:	00060023          	sb	zero,0(a2)
    36e0:	000601a3          	sb	zero,3(a2)
    36e4:	b208                	sb	a0,1(a2)
    36e6:	a22c                	sb	a1,2(a2)
    36e8:	c254                	sw	a3,4(a2)
    36ea:	8082                	ret

000036ec <MasterStatusChangeToDeAvtive>:
    36ec:	471d                	li	a4,7
    36ee:	82e1a023          	sw	a4,-2016(gp) # 20000238 <DeviceStatus>
    36f2:	8082                	ret

000036f4 <warning_init>:
    36f4:	a3dfc2ef          	jal	t0,130 <__riscv_save_0>
    36f8:	4681                	li	a3,0
    36fa:	8c018613          	addi	a2,gp,-1856 # 200002d8 <NowEvent>
    36fe:	4581                	li	a1,0
    3700:	4501                	li	a0,0
    3702:	fdbff0ef          	jal	ra,36dc <warning_event_bind>
    3706:	000036b7          	lui	a3,0x3
    370a:	66468693          	addi	a3,a3,1636 # 3664 <InternalValveFailEventCallback>
    370e:	8a018613          	addi	a2,gp,-1888 # 200002b8 <InternalValveFailEvent>
    3712:	458d                	li	a1,3
    3714:	4505                	li	a0,1
    3716:	fc7ff0ef          	jal	ra,36dc <warning_event_bind>
    371a:	000036b7          	lui	a3,0x3
    371e:	67a68693          	addi	a3,a3,1658 # 367a <ExternalValveFailEventCallback>
    3722:	89818613          	addi	a2,gp,-1896 # 200002b0 <ExternalValveFailEvent>
    3726:	458d                	li	a1,3
    3728:	4509                	li	a0,2
    372a:	fb3ff0ef          	jal	ra,36dc <warning_event_bind>
    372e:	000036b7          	lui	a3,0x3
    3732:	61e68693          	addi	a3,a3,1566 # 361e <MasterSensorLostEventCallback>
    3736:	8b818613          	addi	a2,gp,-1864 # 200002d0 <MasterSensorLostEvent>
    373a:	4585                	li	a1,1
    373c:	450d                	li	a0,3
    373e:	f9fff0ef          	jal	ra,36dc <warning_event_bind>
    3742:	000036b7          	lui	a3,0x3
    3746:	63468693          	addi	a3,a3,1588 # 3634 <MasterSensorLeakEventCallback>
    374a:	8b018613          	addi	a2,gp,-1872 # 200002c8 <MasterSensorLeakEvent>
    374e:	4591                	li	a1,4
    3750:	4511                	li	a0,4
    3752:	f8bff0ef          	jal	ra,36dc <warning_event_bind>
    3756:	000036b7          	lui	a3,0x3
    375a:	64e68693          	addi	a3,a3,1614 # 364e <MasterLowTempEventCallback>
    375e:	8a818613          	addi	a2,gp,-1880 # 200002c0 <MasterLowTempEvent>
    3762:	4589                	li	a1,2
    3764:	4515                	li	a0,5
    3766:	f77ff0ef          	jal	ra,36dc <warning_event_bind>
    376a:	9ebfc06f          	j	154 <__riscv_restore_0>

0000376e <warning_all_clear>:
    376e:	9c3fc2ef          	jal	t0,130 <__riscv_save_0>
    3772:	ff1fd0ef          	jal	ra,1762 <beep_stop>
    3776:	8ecfe0ef          	jal	ra,1862 <led_warn_off>
    377a:	83efe0ef          	jal	ra,17b8 <led_valve_on_resume>
    377e:	d19ff0ef          	jal	ra,3496 <get_valve_status>
    3782:	82a1a023          	sw	a0,-2016(gp) # 20000238 <DeviceStatus>
    3786:	8c018793          	addi	a5,gp,-1856 # 200002d8 <NowEvent>
    378a:	0007a023          	sw	zero,0(a5)
    378e:	0007a223          	sw	zero,4(a5)
    3792:	9c3fc06f          	j	154 <__riscv_restore_0>

00003796 <valvefail_warning_disable>:
    3796:	8201a783          	lw	a5,-2016(gp) # 20000238 <DeviceStatus>
    379a:	4705                	li	a4,1
    379c:	17f5                	addi	a5,a5,-3
    379e:	00f76863          	bltu	a4,a5,37ae <valvefail_warning_disable+0x18>
    37a2:	98ffc2ef          	jal	t0,130 <__riscv_save_0>
    37a6:	fc9ff0ef          	jal	ra,376e <warning_all_clear>
    37aa:	9abfc06f          	j	154 <__riscv_restore_0>
    37ae:	8082                	ret

000037b0 <warning_lost_clear>:
    37b0:	8201a783          	lw	a5,-2016(gp) # 20000238 <DeviceStatus>
    37b4:	4705                	li	a4,1
    37b6:	00f77563          	bgeu	a4,a5,37c0 <warning_lost_clear+0x10>
    37ba:	4715                	li	a4,5
    37bc:	00e79c63          	bne	a5,a4,37d4 <warning_lost_clear+0x24>
    37c0:	971fc2ef          	jal	t0,130 <__riscv_save_0>
    37c4:	fabff0ef          	jal	ra,376e <warning_all_clear>
    37c8:	8aafe0ef          	jal	ra,1872 <led_loss_off>
    37cc:	fedfd0ef          	jal	ra,17b8 <led_valve_on_resume>
    37d0:	985fc06f          	j	154 <__riscv_restore_0>
    37d4:	8082                	ret

000037d6 <ADC1_IRQHandler>:
    37d6:	a001                	j	37d6 <ADC1_IRQHandler>

000037d8 <handle_reset>:
    37d8:	1fffd197          	auipc	gp,0x1fffd
    37dc:	24018193          	addi	gp,gp,576 # 20000a18 <__global_pointer$>
    37e0:	20002117          	auipc	sp,0x20002
    37e4:	82010113          	addi	sp,sp,-2016 # 20005000 <_eusrstack>
    37e8:	00003517          	auipc	a0,0x3
    37ec:	8ac50513          	addi	a0,a0,-1876 # 6094 <_data_lma>
    37f0:	1fffd597          	auipc	a1,0x1fffd
    37f4:	81058593          	addi	a1,a1,-2032 # 20000000 <_data_vma>
    37f8:	84018613          	addi	a2,gp,-1984 # 20000258 <_edata>
    37fc:	00c5fa63          	bgeu	a1,a2,3810 <handle_reset+0x38>
    3800:	00052283          	lw	t0,0(a0)
    3804:	0055a023          	sw	t0,0(a1)
    3808:	0511                	addi	a0,a0,4
    380a:	0591                	addi	a1,a1,4
    380c:	fec5eae3          	bltu	a1,a2,3800 <handle_reset+0x28>
    3810:	84018513          	addi	a0,gp,-1984 # 20000258 <_edata>
    3814:	1fffe597          	auipc	a1,0x1fffe
    3818:	a1c58593          	addi	a1,a1,-1508 # 20001230 <_ebss>
    381c:	00b57763          	bgeu	a0,a1,382a <handle_reset+0x52>
    3820:	00052023          	sw	zero,0(a0)
    3824:	0511                	addi	a0,a0,4
    3826:	feb56de3          	bltu	a0,a1,3820 <handle_reset+0x48>
    382a:	42fd                	li	t0,31
    382c:	bc029073          	csrw	0xbc0,t0
    3830:	428d                	li	t0,3
    3832:	80429073          	csrw	0x804,t0
    3836:	08800293          	li	t0,136
    383a:	30029073          	csrw	mstatus,t0
    383e:	ffffc297          	auipc	t0,0xffffc
    3842:	7c628293          	addi	t0,t0,1990 # 4 <_einit>
    3846:	0032e293          	ori	t0,t0,3
    384a:	30529073          	csrw	mtvec,t0
    384e:	903ff0ef          	jal	ra,3150 <SystemInit>
    3852:	ffffe297          	auipc	t0,0xffffe
    3856:	23e28293          	addi	t0,t0,574 # 1a90 <main>
    385a:	34129073          	csrw	mepc,t0
    385e:	30200073          	mret

00003862 <DBGMCU_GetCHIPID>:
    3862:	1ffff7b7          	lui	a5,0x1ffff
    3866:	7047a503          	lw	a0,1796(a5) # 1ffff704 <_data_lma+0x1fff9670>
    386a:	8082                	ret

0000386c <GPIO_Init>:
    386c:	4598                	lw	a4,8(a1)
    386e:	01077793          	andi	a5,a4,16
    3872:	00f77813          	andi	a6,a4,15
    3876:	c781                	beqz	a5,387e <GPIO_Init+0x12>
    3878:	41dc                	lw	a5,4(a1)
    387a:	00f86833          	or	a6,a6,a5
    387e:	4194                	lw	a3,0(a1)
    3880:	4781                	li	a5,0
    3882:	0ff6f613          	andi	a2,a3,255
    3886:	c239                	beqz	a2,38cc <GPIO_Init+0x60>
    3888:	411c                	lw	a5,0(a0)
    388a:	4601                	li	a2,0
    388c:	4e85                	li	t4,1
    388e:	4f3d                	li	t5,15
    3890:	02800f93          	li	t6,40
    3894:	04800293          	li	t0,72
    3898:	4e21                	li	t3,8
    389a:	00ce98b3          	sll	a7,t4,a2
    389e:	0116f5b3          	and	a1,a3,a7
    38a2:	02b89163          	bne	a7,a1,38c4 <GPIO_Init+0x58>
    38a6:	00261313          	slli	t1,a2,0x2
    38aa:	006f15b3          	sll	a1,t5,t1
    38ae:	fff5c593          	not	a1,a1
    38b2:	8fed                	and	a5,a5,a1
    38b4:	00681333          	sll	t1,a6,t1
    38b8:	00f367b3          	or	a5,t1,a5
    38bc:	0df71763          	bne	a4,t6,398a <GPIO_Init+0x11e>
    38c0:	01152a23          	sw	a7,20(a0)
    38c4:	0605                	addi	a2,a2,1
    38c6:	fdc61ae3          	bne	a2,t3,389a <GPIO_Init+0x2e>
    38ca:	c11c                	sw	a5,0(a0)
    38cc:	6641                	lui	a2,0x10
    38ce:	f0060613          	addi	a2,a2,-256 # ff00 <_data_lma+0x9e6c>
    38d2:	8e75                	and	a2,a2,a3
    38d4:	c23d                	beqz	a2,393a <GPIO_Init+0xce>
    38d6:	40011637          	lui	a2,0x40011
    38da:	80060593          	addi	a1,a2,-2048 # 40010800 <_eusrstack+0x2000b800>
    38de:	0ab51b63          	bne	a0,a1,3994 <GPIO_Init+0x128>
    38e2:	8241a783          	lw	a5,-2012(gp) # 2000023c <CFGHR_tmpA>
    38e6:	45a1                	li	a1,8
    38e8:	4e85                	li	t4,1
    38ea:	4f3d                	li	t5,15
    38ec:	02800f93          	li	t6,40
    38f0:	04800293          	li	t0,72
    38f4:	4e41                	li	t3,16
    38f6:	00be9333          	sll	t1,t4,a1
    38fa:	0066f633          	and	a2,a3,t1
    38fe:	02c31263          	bne	t1,a2,3922 <GPIO_Init+0xb6>
    3902:	00259613          	slli	a2,a1,0x2
    3906:	1601                	addi	a2,a2,-32
    3908:	00cf18b3          	sll	a7,t5,a2
    390c:	fff8c893          	not	a7,a7
    3910:	00f8f7b3          	and	a5,a7,a5
    3914:	00c81633          	sll	a2,a6,a2
    3918:	8fd1                	or	a5,a5,a2
    391a:	09f71963          	bne	a4,t6,39ac <GPIO_Init+0x140>
    391e:	00652a23          	sw	t1,20(a0)
    3922:	0585                	addi	a1,a1,1
    3924:	fdc599e3          	bne	a1,t3,38f6 <GPIO_Init+0x8a>
    3928:	40011637          	lui	a2,0x40011
    392c:	c15c                	sw	a5,4(a0)
    392e:	80060593          	addi	a1,a2,-2048 # 40010800 <_eusrstack+0x2000b800>
    3932:	08b51263          	bne	a0,a1,39b6 <GPIO_Init+0x14a>
    3936:	82f1a223          	sw	a5,-2012(gp) # 2000023c <CFGHR_tmpA>
    393a:	67c1                	lui	a5,0x10
    393c:	04f6e663          	bltu	a3,a5,3988 <GPIO_Init+0x11c>
    3940:	4d50                	lw	a2,28(a0)
    3942:	4781                	li	a5,0
    3944:	4e05                	li	t3,1
    3946:	4f3d                	li	t5,15
    3948:	02800f93          	li	t6,40
    394c:	04800293          	li	t0,72
    3950:	4ea1                	li	t4,8
    3952:	01078593          	addi	a1,a5,16 # 10010 <_data_lma+0x9f7c>
    3956:	00be15b3          	sll	a1,t3,a1
    395a:	00b6f8b3          	and	a7,a3,a1
    395e:	03159163          	bne	a1,a7,3980 <GPIO_Init+0x114>
    3962:	00279893          	slli	a7,a5,0x2
    3966:	011f1333          	sll	t1,t5,a7
    396a:	fff34313          	not	t1,t1
    396e:	00c37633          	and	a2,t1,a2
    3972:	011818b3          	sll	a7,a6,a7
    3976:	00c8e633          	or	a2,a7,a2
    397a:	05f71a63          	bne	a4,t6,39ce <GPIO_Init+0x162>
    397e:	c94c                	sw	a1,20(a0)
    3980:	0785                	addi	a5,a5,1
    3982:	fdd798e3          	bne	a5,t4,3952 <GPIO_Init+0xe6>
    3986:	cd50                	sw	a2,28(a0)
    3988:	8082                	ret
    398a:	f2571de3          	bne	a4,t0,38c4 <GPIO_Init+0x58>
    398e:	01152823          	sw	a7,16(a0)
    3992:	bf0d                	j	38c4 <GPIO_Init+0x58>
    3994:	c0060593          	addi	a1,a2,-1024
    3998:	00b51563          	bne	a0,a1,39a2 <GPIO_Init+0x136>
    399c:	8281a783          	lw	a5,-2008(gp) # 20000240 <CFGHR_tmpB>
    39a0:	b799                	j	38e6 <GPIO_Init+0x7a>
    39a2:	f4c512e3          	bne	a0,a2,38e6 <GPIO_Init+0x7a>
    39a6:	82c1a783          	lw	a5,-2004(gp) # 20000244 <CFGHR_tmpC>
    39aa:	bf35                	j	38e6 <GPIO_Init+0x7a>
    39ac:	f6571be3          	bne	a4,t0,3922 <GPIO_Init+0xb6>
    39b0:	00652823          	sw	t1,16(a0)
    39b4:	b7bd                	j	3922 <GPIO_Init+0xb6>
    39b6:	c0060593          	addi	a1,a2,-1024
    39ba:	00b51563          	bne	a0,a1,39c4 <GPIO_Init+0x158>
    39be:	82f1a423          	sw	a5,-2008(gp) # 20000240 <CFGHR_tmpB>
    39c2:	bfa5                	j	393a <GPIO_Init+0xce>
    39c4:	f6c51be3          	bne	a0,a2,393a <GPIO_Init+0xce>
    39c8:	82f1a623          	sw	a5,-2004(gp) # 20000244 <CFGHR_tmpC>
    39cc:	b7bd                	j	393a <GPIO_Init+0xce>
    39ce:	fa5719e3          	bne	a4,t0,3980 <GPIO_Init+0x114>
    39d2:	00fe15b3          	sll	a1,t3,a5
    39d6:	d10c                	sw	a1,32(a0)
    39d8:	b765                	j	3980 <GPIO_Init+0x114>

000039da <GPIO_ReadInputDataBit>:
    39da:	4508                	lw	a0,8(a0)
    39dc:	8d6d                	and	a0,a0,a1
    39de:	00a03533          	snez	a0,a0
    39e2:	8082                	ret

000039e4 <GPIO_WriteBit>:
    39e4:	ca01                	beqz	a2,39f4 <GPIO_WriteBit+0x10>
    39e6:	01059793          	slli	a5,a1,0x10
    39ea:	83c1                	srli	a5,a5,0x10
    39ec:	c91c                	sw	a5,16(a0)
    39ee:	81c1                	srli	a1,a1,0x10
    39f0:	d10c                	sw	a1,32(a0)
    39f2:	8082                	ret
    39f4:	c94c                	sw	a1,20(a0)
    39f6:	8082                	ret

000039f8 <GPIO_PinRemapConfig>:
    39f8:	400108b7          	lui	a7,0x40010
    39fc:	0048a783          	lw	a5,4(a7) # 40010004 <_eusrstack+0x2000b004>
    3a00:	01055713          	srli	a4,a0,0x10
    3a04:	01051693          	slli	a3,a0,0x10
    3a08:	00300637          	lui	a2,0x300
    3a0c:	00451313          	slli	t1,a0,0x4
    3a10:	8b3d                	andi	a4,a4,15
    3a12:	82c1                	srli	a3,a3,0x10
    3a14:	00c57833          	and	a6,a0,a2
    3a18:	06035063          	bgez	t1,3a78 <GPIO_PinRemapConfig+0x80>
    3a1c:	02c81363          	bne	a6,a2,3a42 <GPIO_PinRemapConfig+0x4a>
    3a20:	0048a603          	lw	a2,4(a7)
    3a24:	f1000737          	lui	a4,0xf1000
    3a28:	177d                	addi	a4,a4,-1
    3a2a:	8ff9                	and	a5,a5,a4
    3a2c:	8f71                	and	a4,a4,a2
    3a2e:	00e8a223          	sw	a4,4(a7)
    3a32:	c19d                	beqz	a1,3a58 <GPIO_PinRemapConfig+0x60>
    3a34:	8145                	srli	a0,a0,0x11
    3a36:	07057513          	andi	a0,a0,112
    3a3a:	00a69533          	sll	a0,a3,a0
    3a3e:	8fc9                	or	a5,a5,a0
    3a40:	a821                	j	3a58 <GPIO_PinRemapConfig+0x60>
    3a42:	00951613          	slli	a2,a0,0x9
    3a46:	00065d63          	bgez	a2,3a60 <GPIO_PinRemapConfig+0x68>
    3a4a:	fffc8737          	lui	a4,0xfffc8
    3a4e:	177d                	addi	a4,a4,-1
    3a50:	8ff9                	and	a5,a5,a4
    3a52:	c199                	beqz	a1,3a58 <GPIO_PinRemapConfig+0x60>
    3a54:	06be                	slli	a3,a3,0xf
    3a56:	8fd5                	or	a5,a5,a3
    3a58:	40010737          	lui	a4,0x40010
    3a5c:	c35c                	sw	a5,4(a4)
    3a5e:	8082                	ret
    3a60:	00200637          	lui	a2,0x200
    3a64:	00c81363          	bne	a6,a2,3a6a <GPIO_PinRemapConfig+0x72>
    3a68:	0741                	addi	a4,a4,16
    3a6a:	461d                	li	a2,7
    3a6c:	00e61733          	sll	a4,a2,a4
    3a70:	fff74713          	not	a4,a4
    3a74:	8ff9                	and	a5,a5,a4
    3a76:	bf75                	j	3a32 <GPIO_PinRemapConfig+0x3a>
    3a78:	00c81563          	bne	a6,a2,3a82 <GPIO_PinRemapConfig+0x8a>
    3a7c:	0741                	addi	a4,a4,16
    3a7e:	460d                	li	a2,3
    3a80:	b7f5                	j	3a6c <GPIO_PinRemapConfig+0x74>
    3a82:	00b51613          	slli	a2,a0,0xb
    3a86:	fe064ce3          	bltz	a2,3a7e <GPIO_PinRemapConfig+0x86>
    3a8a:	01155713          	srli	a4,a0,0x11
    3a8e:	07077713          	andi	a4,a4,112
    3a92:	00e69733          	sll	a4,a3,a4
    3a96:	bfe9                	j	3a70 <GPIO_PinRemapConfig+0x78>

00003a98 <I2C_Init>:
    3a98:	e98fc2ef          	jal	t0,130 <__riscv_save_0>
    3a9c:	1101                	addi	sp,sp,-32
    3a9e:	84aa                	mv	s1,a0
    3aa0:	2142                	lhu	s0,4(a0)
    3aa2:	0808                	addi	a0,sp,16
    3aa4:	c62e                	sw	a1,12(sp)
    3aa6:	2ca5                	jal	3d1e <RCC_GetClocksFreq>
    3aa8:	47e2                	lw	a5,24(sp)
    3aaa:	000f4737          	lui	a4,0xf4
    3aae:	24070713          	addi	a4,a4,576 # f4240 <_data_lma+0xee1ac>
    3ab2:	02e7d733          	divu	a4,a5,a4
    3ab6:	0442                	slli	s0,s0,0x10
    3ab8:	8041                	srli	s0,s0,0x10
    3aba:	fc047413          	andi	s0,s0,-64
    3abe:	0442                	slli	s0,s0,0x10
    3ac0:	8041                	srli	s0,s0,0x10
    3ac2:	45b2                	lw	a1,12(sp)
    3ac4:	66e1                	lui	a3,0x18
    3ac6:	6a068693          	addi	a3,a3,1696 # 186a0 <_data_lma+0x1260c>
    3aca:	8c59                	or	s0,s0,a4
    3acc:	0442                	slli	s0,s0,0x10
    3ace:	8041                	srli	s0,s0,0x10
    3ad0:	a0c2                	sh	s0,4(s1)
    3ad2:	209a                	lhu	a4,0(s1)
    3ad4:	0742                	slli	a4,a4,0x10
    3ad6:	8341                	srli	a4,a4,0x10
    3ad8:	9b79                	andi	a4,a4,-2
    3ada:	0742                	slli	a4,a4,0x10
    3adc:	8341                	srli	a4,a4,0x10
    3ade:	a09a                	sh	a4,0(s1)
    3ae0:	4198                	lw	a4,0(a1)
    3ae2:	04e6e463          	bltu	a3,a4,3b2a <I2C_Init+0x92>
    3ae6:	0706                	slli	a4,a4,0x1
    3ae8:	02e7d733          	divu	a4,a5,a4
    3aec:	4691                	li	a3,4
    3aee:	87ba                	mv	a5,a4
    3af0:	0742                	slli	a4,a4,0x10
    3af2:	8341                	srli	a4,a4,0x10
    3af4:	00d77363          	bgeu	a4,a3,3afa <I2C_Init+0x62>
    3af8:	4791                	li	a5,4
    3afa:	07c2                	slli	a5,a5,0x10
    3afc:	83c1                	srli	a5,a5,0x10
    3afe:	acde                	sh	a5,28(s1)
    3b00:	209e                	lhu	a5,0(s1)
    3b02:	21da                	lhu	a4,4(a1)
    3b04:	25b6                	lhu	a3,10(a1)
    3b06:	0017e793          	ori	a5,a5,1
    3b0a:	a09e                	sh	a5,0(s1)
    3b0c:	209e                	lhu	a5,0(s1)
    3b0e:	8f55                	or	a4,a4,a3
    3b10:	07c2                	slli	a5,a5,0x10
    3b12:	83c1                	srli	a5,a5,0x10
    3b14:	bf57f793          	andi	a5,a5,-1035
    3b18:	8fd9                	or	a5,a5,a4
    3b1a:	a09e                	sh	a5,0(s1)
    3b1c:	259a                	lhu	a4,8(a1)
    3b1e:	25de                	lhu	a5,12(a1)
    3b20:	8fd9                	or	a5,a5,a4
    3b22:	a49e                	sh	a5,8(s1)
    3b24:	6105                	addi	sp,sp,32
    3b26:	e2efc06f          	j	154 <__riscv_restore_0>
    3b2a:	21f2                	lhu	a2,6(a1)
    3b2c:	66b1                	lui	a3,0xc
    3b2e:	16fd                	addi	a3,a3,-1
    3b30:	02d61163          	bne	a2,a3,3b52 <I2C_Init+0xba>
    3b34:	468d                	li	a3,3
    3b36:	02d70733          	mul	a4,a4,a3
    3b3a:	02e7d7b3          	divu	a5,a5,a4
    3b3e:	07c2                	slli	a5,a5,0x10
    3b40:	83c1                	srli	a5,a5,0x10
    3b42:	01479713          	slli	a4,a5,0x14
    3b46:	e319                	bnez	a4,3b4c <I2C_Init+0xb4>
    3b48:	0017e793          	ori	a5,a5,1
    3b4c:	6721                	lui	a4,0x8
    3b4e:	8fd9                	or	a5,a5,a4
    3b50:	b77d                	j	3afe <I2C_Init+0x66>
    3b52:	46e5                	li	a3,25
    3b54:	02d70733          	mul	a4,a4,a3
    3b58:	02e7d7b3          	divu	a5,a5,a4
    3b5c:	6711                	lui	a4,0x4
    3b5e:	07c2                	slli	a5,a5,0x10
    3b60:	83c1                	srli	a5,a5,0x10
    3b62:	8fd9                	or	a5,a5,a4
    3b64:	bff9                	j	3b42 <I2C_Init+0xaa>

00003b66 <I2C_Cmd>:
    3b66:	211e                	lhu	a5,0(a0)
    3b68:	c589                	beqz	a1,3b72 <I2C_Cmd+0xc>
    3b6a:	0017e793          	ori	a5,a5,1
    3b6e:	a11e                	sh	a5,0(a0)
    3b70:	8082                	ret
    3b72:	07c2                	slli	a5,a5,0x10
    3b74:	83c1                	srli	a5,a5,0x10
    3b76:	9bf9                	andi	a5,a5,-2
    3b78:	07c2                	slli	a5,a5,0x10
    3b7a:	83c1                	srli	a5,a5,0x10
    3b7c:	bfcd                	j	3b6e <I2C_Cmd+0x8>

00003b7e <I2C_GenerateSTART>:
    3b7e:	211e                	lhu	a5,0(a0)
    3b80:	c589                	beqz	a1,3b8a <I2C_GenerateSTART+0xc>
    3b82:	1007e793          	ori	a5,a5,256
    3b86:	a11e                	sh	a5,0(a0)
    3b88:	8082                	ret
    3b8a:	07c2                	slli	a5,a5,0x10
    3b8c:	83c1                	srli	a5,a5,0x10
    3b8e:	eff7f793          	andi	a5,a5,-257
    3b92:	07c2                	slli	a5,a5,0x10
    3b94:	83c1                	srli	a5,a5,0x10
    3b96:	bfc5                	j	3b86 <I2C_GenerateSTART+0x8>

00003b98 <I2C_GenerateSTOP>:
    3b98:	211e                	lhu	a5,0(a0)
    3b9a:	c589                	beqz	a1,3ba4 <I2C_GenerateSTOP+0xc>
    3b9c:	2007e793          	ori	a5,a5,512
    3ba0:	a11e                	sh	a5,0(a0)
    3ba2:	8082                	ret
    3ba4:	07c2                	slli	a5,a5,0x10
    3ba6:	83c1                	srli	a5,a5,0x10
    3ba8:	dff7f793          	andi	a5,a5,-513
    3bac:	07c2                	slli	a5,a5,0x10
    3bae:	83c1                	srli	a5,a5,0x10
    3bb0:	bfc5                	j	3ba0 <I2C_GenerateSTOP+0x8>

00003bb2 <I2C_AcknowledgeConfig>:
    3bb2:	211e                	lhu	a5,0(a0)
    3bb4:	c589                	beqz	a1,3bbe <I2C_AcknowledgeConfig+0xc>
    3bb6:	4007e793          	ori	a5,a5,1024
    3bba:	a11e                	sh	a5,0(a0)
    3bbc:	8082                	ret
    3bbe:	07c2                	slli	a5,a5,0x10
    3bc0:	83c1                	srli	a5,a5,0x10
    3bc2:	bff7f793          	andi	a5,a5,-1025
    3bc6:	07c2                	slli	a5,a5,0x10
    3bc8:	83c1                	srli	a5,a5,0x10
    3bca:	bfc5                	j	3bba <I2C_AcknowledgeConfig+0x8>

00003bcc <I2C_ITConfig>:
    3bcc:	215e                	lhu	a5,4(a0)
    3bce:	c601                	beqz	a2,3bd6 <I2C_ITConfig+0xa>
    3bd0:	8ddd                	or	a1,a1,a5
    3bd2:	a14e                	sh	a1,4(a0)
    3bd4:	8082                	ret
    3bd6:	fff5c593          	not	a1,a1
    3bda:	8dfd                	and	a1,a1,a5
    3bdc:	bfdd                	j	3bd2 <I2C_ITConfig+0x6>

00003bde <I2C_SendData>:
    3bde:	a90e                	sh	a1,16(a0)
    3be0:	8082                	ret

00003be2 <I2C_ReceiveData>:
    3be2:	290a                	lhu	a0,16(a0)
    3be4:	0ff57513          	andi	a0,a0,255
    3be8:	8082                	ret

00003bea <I2C_Send7bitAddress>:
    3bea:	0fe5f793          	andi	a5,a1,254
    3bee:	c219                	beqz	a2,3bf4 <I2C_Send7bitAddress+0xa>
    3bf0:	0015e793          	ori	a5,a1,1
    3bf4:	07c2                	slli	a5,a5,0x10
    3bf6:	83c1                	srli	a5,a5,0x10
    3bf8:	a91e                	sh	a5,16(a0)
    3bfa:	8082                	ret

00003bfc <I2C_ReadRegister>:
    3bfc:	1141                	addi	sp,sp,-16
    3bfe:	c602                	sw	zero,12(sp)
    3c00:	c62a                	sw	a0,12(sp)
    3c02:	47b2                	lw	a5,12(sp)
    3c04:	95be                	add	a1,a1,a5
    3c06:	c62e                	sw	a1,12(sp)
    3c08:	47b2                	lw	a5,12(sp)
    3c0a:	238a                	lhu	a0,0(a5)
    3c0c:	0141                	addi	sp,sp,16
    3c0e:	8082                	ret

00003c10 <I2C_NACKPositionConfig>:
    3c10:	211a                	lhu	a4,0(a0)
    3c12:	80058593          	addi	a1,a1,-2048
    3c16:	e989                	bnez	a1,3c28 <I2C_NACKPositionConfig+0x18>
    3c18:	6785                	lui	a5,0x1
    3c1a:	80078793          	addi	a5,a5,-2048 # 800 <PD_Phy_SendPack+0x5a>
    3c1e:	8fd9                	or	a5,a5,a4
    3c20:	07c2                	slli	a5,a5,0x10
    3c22:	83c1                	srli	a5,a5,0x10
    3c24:	a11e                	sh	a5,0(a0)
    3c26:	8082                	ret
    3c28:	77fd                	lui	a5,0xfffff
    3c2a:	7ff78793          	addi	a5,a5,2047 # fffff7ff <_eusrstack+0xdfffa7ff>
    3c2e:	8ff9                	and	a5,a5,a4
    3c30:	bfd5                	j	3c24 <I2C_NACKPositionConfig+0x14>

00003c32 <I2C_GetFlagStatus>:
    3c32:	1141                	addi	sp,sp,-16
    3c34:	c402                	sw	zero,8(sp)
    3c36:	c602                	sw	zero,12(sp)
    3c38:	01c5d793          	srli	a5,a1,0x1c
    3c3c:	c62a                	sw	a0,12(sp)
    3c3e:	c43e                	sw	a5,8(sp)
    3c40:	47a2                	lw	a5,8(sp)
    3c42:	05a2                	slli	a1,a1,0x8
    3c44:	81a1                	srli	a1,a1,0x8
    3c46:	cb99                	beqz	a5,3c5c <I2C_GetFlagStatus+0x2a>
    3c48:	47b2                	lw	a5,12(sp)
    3c4a:	07d1                	addi	a5,a5,20
    3c4c:	c63e                	sw	a5,12(sp)
    3c4e:	47b2                	lw	a5,12(sp)
    3c50:	4388                	lw	a0,0(a5)
    3c52:	0141                	addi	sp,sp,16
    3c54:	8d6d                	and	a0,a0,a1
    3c56:	00a03533          	snez	a0,a0
    3c5a:	8082                	ret
    3c5c:	47b2                	lw	a5,12(sp)
    3c5e:	81c1                	srli	a1,a1,0x10
    3c60:	07e1                	addi	a5,a5,24
    3c62:	b7ed                	j	3c4c <I2C_GetFlagStatus+0x1a>

00003c64 <I2C_GetITStatus>:
    3c64:	215e                	lhu	a5,4(a0)
    3c66:	295a                	lhu	a4,20(a0)
    3c68:	07c2                	slli	a5,a5,0x10
    3c6a:	8f6d                	and	a4,a4,a1
    3c6c:	83c1                	srli	a5,a5,0x10
    3c6e:	cb09                	beqz	a4,3c80 <I2C_GetITStatus+0x1c>
    3c70:	0105d513          	srli	a0,a1,0x10
    3c74:	8d7d                	and	a0,a0,a5
    3c76:	70057513          	andi	a0,a0,1792
    3c7a:	00a03533          	snez	a0,a0
    3c7e:	8082                	ret
    3c80:	4501                	li	a0,0
    3c82:	8082                	ret

00003c84 <I2C_ClearITPendingBit>:
    3c84:	fff5c593          	not	a1,a1
    3c88:	05c2                	slli	a1,a1,0x10
    3c8a:	81c1                	srli	a1,a1,0x10
    3c8c:	a94e                	sh	a1,20(a0)
    3c8e:	8082                	ret

00003c90 <IWDG_WriteAccessCmd>:
    3c90:	400037b7          	lui	a5,0x40003
    3c94:	c388                	sw	a0,0(a5)
    3c96:	8082                	ret

00003c98 <IWDG_SetPrescaler>:
    3c98:	400037b7          	lui	a5,0x40003
    3c9c:	c3c8                	sw	a0,4(a5)
    3c9e:	8082                	ret

00003ca0 <IWDG_SetReload>:
    3ca0:	400037b7          	lui	a5,0x40003
    3ca4:	c788                	sw	a0,8(a5)
    3ca6:	8082                	ret

00003ca8 <IWDG_ReloadCounter>:
    3ca8:	67ad                	lui	a5,0xb
    3caa:	40003737          	lui	a4,0x40003
    3cae:	aaa78793          	addi	a5,a5,-1366 # aaaa <_data_lma+0x4a16>
    3cb2:	c31c                	sw	a5,0(a4)
    3cb4:	8082                	ret

00003cb6 <IWDG_Enable>:
    3cb6:	67b5                	lui	a5,0xd
    3cb8:	40003737          	lui	a4,0x40003
    3cbc:	ccc78793          	addi	a5,a5,-820 # cccc <_data_lma+0x6c38>
    3cc0:	c31c                	sw	a5,0(a4)
    3cc2:	8082                	ret

00003cc4 <NVIC_PriorityGroupConfig>:
    3cc4:	8ca1a423          	sw	a0,-1848(gp) # 200002e0 <NVIC_Priority_Group>
    3cc8:	8082                	ret

00003cca <NVIC_Init>:
    3cca:	8c81a703          	lw	a4,-1848(gp) # 200002e0 <NVIC_Priority_Group>
    3cce:	4785                	li	a5,1
    3cd0:	2114                	lbu	a3,0(a0)
    3cd2:	02f71063          	bne	a4,a5,3cf2 <NVIC_Init+0x28>
    3cd6:	311c                	lbu	a5,1(a0)
    3cd8:	02e79c63          	bne	a5,a4,3d10 <NVIC_Init+0x46>
    3cdc:	213c                	lbu	a5,2(a0)
    3cde:	0796                	slli	a5,a5,0x5
    3ce0:	f807e793          	ori	a5,a5,-128
    3ce4:	e000e737          	lui	a4,0xe000e
    3ce8:	0ff7f793          	andi	a5,a5,255
    3cec:	9736                	add	a4,a4,a3
    3cee:	40f70023          	sb	a5,1024(a4) # e000e400 <_eusrstack+0xc0009400>
    3cf2:	4705                	li	a4,1
    3cf4:	0056d793          	srli	a5,a3,0x5
    3cf8:	00d71733          	sll	a4,a4,a3
    3cfc:	4154                	lw	a3,4(a0)
    3cfe:	ce89                	beqz	a3,3d18 <NVIC_Init+0x4e>
    3d00:	04078793          	addi	a5,a5,64
    3d04:	078a                	slli	a5,a5,0x2
    3d06:	e000e6b7          	lui	a3,0xe000e
    3d0a:	97b6                	add	a5,a5,a3
    3d0c:	c398                	sw	a4,0(a5)
    3d0e:	8082                	ret
    3d10:	f3ed                	bnez	a5,3cf2 <NVIC_Init+0x28>
    3d12:	213c                	lbu	a5,2(a0)
    3d14:	0796                	slli	a5,a5,0x5
    3d16:	b7f9                	j	3ce4 <NVIC_Init+0x1a>
    3d18:	06078793          	addi	a5,a5,96
    3d1c:	b7e5                	j	3d04 <NVIC_Init+0x3a>

00003d1e <RCC_GetClocksFreq>:
    3d1e:	02dc77b7          	lui	a5,0x2dc7
    3d22:	c0078793          	addi	a5,a5,-1024 # 2dc6c00 <_data_lma+0x2dc0b6c>
    3d26:	c11c                	sw	a5,0(a0)
    3d28:	40021637          	lui	a2,0x40021
    3d2c:	4258                	lw	a4,4(a2)
    3d2e:	8311                	srli	a4,a4,0x4
    3d30:	00f77693          	andi	a3,a4,15
    3d34:	20000737          	lui	a4,0x20000
    3d38:	03870713          	addi	a4,a4,56 # 20000038 <APBAHBPrescTable>
    3d3c:	9736                	add	a4,a4,a3
    3d3e:	2314                	lbu	a3,0(a4)
    3d40:	4250                	lw	a2,4(a2)
    3d42:	0ff6f693          	andi	a3,a3,255
    3d46:	08067613          	andi	a2,a2,128
    3d4a:	00d7d733          	srl	a4,a5,a3
    3d4e:	e219                	bnez	a2,3d54 <RCC_GetClocksFreq+0x36>
    3d50:	02d7d733          	divu	a4,a5,a3
    3d54:	c158                	sw	a4,4(a0)
    3d56:	c518                	sw	a4,8(a0)
    3d58:	c558                	sw	a4,12(a0)
    3d5a:	8082                	ret

00003d5c <RCC_APB2PeriphClockCmd>:
    3d5c:	c599                	beqz	a1,3d6a <RCC_APB2PeriphClockCmd+0xe>
    3d5e:	40021737          	lui	a4,0x40021
    3d62:	4f1c                	lw	a5,24(a4)
    3d64:	8d5d                	or	a0,a0,a5
    3d66:	cf08                	sw	a0,24(a4)
    3d68:	8082                	ret
    3d6a:	400217b7          	lui	a5,0x40021
    3d6e:	4f98                	lw	a4,24(a5)
    3d70:	fff54513          	not	a0,a0
    3d74:	8d79                	and	a0,a0,a4
    3d76:	cf88                	sw	a0,24(a5)
    3d78:	8082                	ret

00003d7a <RCC_APB1PeriphClockCmd>:
    3d7a:	c599                	beqz	a1,3d88 <RCC_APB1PeriphClockCmd+0xe>
    3d7c:	40021737          	lui	a4,0x40021
    3d80:	4f5c                	lw	a5,28(a4)
    3d82:	8d5d                	or	a0,a0,a5
    3d84:	cf48                	sw	a0,28(a4)
    3d86:	8082                	ret
    3d88:	400217b7          	lui	a5,0x40021
    3d8c:	4fd8                	lw	a4,28(a5)
    3d8e:	fff54513          	not	a0,a0
    3d92:	8d79                	and	a0,a0,a4
    3d94:	cfc8                	sw	a0,28(a5)
    3d96:	8082                	ret

00003d98 <SPI_Init>:
    3d98:	211a                	lhu	a4,0(a0)
    3d9a:	678d                	lui	a5,0x3
    3d9c:	04078793          	addi	a5,a5,64 # 3040 <led_set_mode+0xa2>
    3da0:	21b6                	lhu	a3,2(a1)
    3da2:	8f7d                	and	a4,a4,a5
    3da4:	219e                	lhu	a5,0(a1)
    3da6:	8fd5                	or	a5,a5,a3
    3da8:	21d6                	lhu	a3,4(a1)
    3daa:	8fd5                	or	a5,a5,a3
    3dac:	21f6                	lhu	a3,6(a1)
    3dae:	8fd5                	or	a5,a5,a3
    3db0:	2596                	lhu	a3,8(a1)
    3db2:	8fd5                	or	a5,a5,a3
    3db4:	25b6                	lhu	a3,10(a1)
    3db6:	8fd5                	or	a5,a5,a3
    3db8:	25d6                	lhu	a3,12(a1)
    3dba:	8fd5                	or	a5,a5,a3
    3dbc:	25f6                	lhu	a3,14(a1)
    3dbe:	8fd5                	or	a5,a5,a3
    3dc0:	8fd9                	or	a5,a5,a4
    3dc2:	a11e                	sh	a5,0(a0)
    3dc4:	299e                	lhu	a5,16(a1)
    3dc6:	a91e                	sh	a5,16(a0)
    3dc8:	8082                	ret

00003dca <SPI_Cmd>:
    3dca:	211e                	lhu	a5,0(a0)
    3dcc:	c589                	beqz	a1,3dd6 <SPI_Cmd+0xc>
    3dce:	0407e793          	ori	a5,a5,64
    3dd2:	a11e                	sh	a5,0(a0)
    3dd4:	8082                	ret
    3dd6:	07c2                	slli	a5,a5,0x10
    3dd8:	83c1                	srli	a5,a5,0x10
    3dda:	fbf7f793          	andi	a5,a5,-65
    3dde:	07c2                	slli	a5,a5,0x10
    3de0:	83c1                	srli	a5,a5,0x10
    3de2:	bfc5                	j	3dd2 <SPI_Cmd+0x8>

00003de4 <SPI_I2S_ITConfig>:
    3de4:	4785                	li	a5,1
    3de6:	8191                	srli	a1,a1,0x4
    3de8:	00b795b3          	sll	a1,a5,a1
    3dec:	215e                	lhu	a5,4(a0)
    3dee:	05c2                	slli	a1,a1,0x10
    3df0:	81c1                	srli	a1,a1,0x10
    3df2:	c601                	beqz	a2,3dfa <SPI_I2S_ITConfig+0x16>
    3df4:	8ddd                	or	a1,a1,a5
    3df6:	a14e                	sh	a1,4(a0)
    3df8:	8082                	ret
    3dfa:	fff5c593          	not	a1,a1
    3dfe:	8dfd                	and	a1,a1,a5
    3e00:	bfdd                	j	3df6 <SPI_I2S_ITConfig+0x12>

00003e02 <SPI_I2S_SendData>:
    3e02:	a54e                	sh	a1,12(a0)
    3e04:	8082                	ret

00003e06 <SPI_I2S_ReceiveData>:
    3e06:	254a                	lhu	a0,12(a0)
    3e08:	8082                	ret

00003e0a <SPI_SSOutputCmd>:
    3e0a:	215e                	lhu	a5,4(a0)
    3e0c:	c589                	beqz	a1,3e16 <SPI_SSOutputCmd+0xc>
    3e0e:	0047e793          	ori	a5,a5,4
    3e12:	a15e                	sh	a5,4(a0)
    3e14:	8082                	ret
    3e16:	07c2                	slli	a5,a5,0x10
    3e18:	83c1                	srli	a5,a5,0x10
    3e1a:	9bed                	andi	a5,a5,-5
    3e1c:	07c2                	slli	a5,a5,0x10
    3e1e:	83c1                	srli	a5,a5,0x10
    3e20:	bfcd                	j	3e12 <SPI_SSOutputCmd+0x8>

00003e22 <SPI_I2S_GetITStatus>:
    3e22:	215e                	lhu	a5,4(a0)
    3e24:	2516                	lhu	a3,8(a0)
    3e26:	00f5f713          	andi	a4,a1,15
    3e2a:	4505                	li	a0,1
    3e2c:	00e51733          	sll	a4,a0,a4
    3e30:	07c2                	slli	a5,a5,0x10
    3e32:	8f75                	and	a4,a4,a3
    3e34:	83c1                	srli	a5,a5,0x10
    3e36:	cb01                	beqz	a4,3e46 <SPI_I2S_GetITStatus+0x24>
    3e38:	8191                	srli	a1,a1,0x4
    3e3a:	00b51533          	sll	a0,a0,a1
    3e3e:	8d7d                	and	a0,a0,a5
    3e40:	00a03533          	snez	a0,a0
    3e44:	8082                	ret
    3e46:	4501                	li	a0,0
    3e48:	8082                	ret

00003e4a <TIM_TimeBaseInit>:
    3e4a:	211e                	lhu	a5,0(a0)
    3e4c:	40013737          	lui	a4,0x40013
    3e50:	c0070713          	addi	a4,a4,-1024 # 40012c00 <_eusrstack+0x2000dc00>
    3e54:	07c2                	slli	a5,a5,0x10
    3e56:	83c1                	srli	a5,a5,0x10
    3e58:	00e50663          	beq	a0,a4,3e64 <TIM_TimeBaseInit+0x1a>
    3e5c:	40000737          	lui	a4,0x40000
    3e60:	00e51663          	bne	a0,a4,3e6c <TIM_TimeBaseInit+0x22>
    3e64:	21ba                	lhu	a4,2(a1)
    3e66:	f8f7f793          	andi	a5,a5,-113
    3e6a:	8fd9                	or	a5,a5,a4
    3e6c:	21fa                	lhu	a4,6(a1)
    3e6e:	cff7f793          	andi	a5,a5,-769
    3e72:	07c2                	slli	a5,a5,0x10
    3e74:	83c1                	srli	a5,a5,0x10
    3e76:	8fd9                	or	a5,a5,a4
    3e78:	a11e                	sh	a5,0(a0)
    3e7a:	21de                	lhu	a5,4(a1)
    3e7c:	b55e                	sh	a5,44(a0)
    3e7e:	219e                	lhu	a5,0(a1)
    3e80:	b51e                	sh	a5,40(a0)
    3e82:	400137b7          	lui	a5,0x40013
    3e86:	c0078793          	addi	a5,a5,-1024 # 40012c00 <_eusrstack+0x2000dc00>
    3e8a:	00f50663          	beq	a0,a5,3e96 <TIM_TimeBaseInit+0x4c>
    3e8e:	400007b7          	lui	a5,0x40000
    3e92:	00f51463          	bne	a0,a5,3e9a <TIM_TimeBaseInit+0x50>
    3e96:	259c                	lbu	a5,8(a1)
    3e98:	b91e                	sh	a5,48(a0)
    3e9a:	4785                	li	a5,1
    3e9c:	a95e                	sh	a5,20(a0)
    3e9e:	8082                	ret

00003ea0 <TIM_Cmd>:
    3ea0:	211e                	lhu	a5,0(a0)
    3ea2:	c589                	beqz	a1,3eac <TIM_Cmd+0xc>
    3ea4:	0017e793          	ori	a5,a5,1
    3ea8:	a11e                	sh	a5,0(a0)
    3eaa:	8082                	ret
    3eac:	07c2                	slli	a5,a5,0x10
    3eae:	83c1                	srli	a5,a5,0x10
    3eb0:	9bf9                	andi	a5,a5,-2
    3eb2:	07c2                	slli	a5,a5,0x10
    3eb4:	83c1                	srli	a5,a5,0x10
    3eb6:	bfcd                	j	3ea8 <TIM_Cmd+0x8>

00003eb8 <TIM_ITConfig>:
    3eb8:	255e                	lhu	a5,12(a0)
    3eba:	c601                	beqz	a2,3ec2 <TIM_ITConfig+0xa>
    3ebc:	8ddd                	or	a1,a1,a5
    3ebe:	a54e                	sh	a1,12(a0)
    3ec0:	8082                	ret
    3ec2:	fff5c593          	not	a1,a1
    3ec6:	8dfd                	and	a1,a1,a5
    3ec8:	bfdd                	j	3ebe <TIM_ITConfig+0x6>

00003eca <TIM_GetITStatus>:
    3eca:	291e                	lhu	a5,16(a0)
    3ecc:	254a                	lhu	a0,12(a0)
    3ece:	8fed                	and	a5,a5,a1
    3ed0:	0542                	slli	a0,a0,0x10
    3ed2:	8141                	srli	a0,a0,0x10
    3ed4:	c789                	beqz	a5,3ede <TIM_GetITStatus+0x14>
    3ed6:	8d6d                	and	a0,a0,a1
    3ed8:	00a03533          	snez	a0,a0
    3edc:	8082                	ret
    3ede:	4501                	li	a0,0
    3ee0:	8082                	ret

00003ee2 <TIM_ClearITPendingBit>:
    3ee2:	fff5c593          	not	a1,a1
    3ee6:	05c2                	slli	a1,a1,0x10
    3ee8:	81c1                	srli	a1,a1,0x10
    3eea:	a90e                	sh	a1,16(a0)
    3eec:	8082                	ret

00003eee <USART_Init>:
    3eee:	a42fc2ef          	jal	t0,130 <__riscv_save_0>
    3ef2:	2916                	lhu	a3,16(a0)
    3ef4:	77f5                	lui	a5,0xffffd
    3ef6:	17fd                	addi	a5,a5,-1
    3ef8:	8ff5                	and	a5,a5,a3
    3efa:	21f6                	lhu	a3,6(a1)
    3efc:	25da                	lhu	a4,12(a1)
    3efe:	1101                	addi	sp,sp,-32
    3f00:	8fd5                	or	a5,a5,a3
    3f02:	a91e                	sh	a5,16(a0)
    3f04:	2556                	lhu	a3,12(a0)
    3f06:	77fd                	lui	a5,0xfffff
    3f08:	9f378793          	addi	a5,a5,-1549 # ffffe9f3 <_eusrstack+0xdfff99f3>
    3f0c:	8ff5                	and	a5,a5,a3
    3f0e:	21d6                	lhu	a3,4(a1)
    3f10:	842a                	mv	s0,a0
    3f12:	c62e                	sw	a1,12(sp)
    3f14:	8fd5                	or	a5,a5,a3
    3f16:	2596                	lhu	a3,8(a1)
    3f18:	8fd5                	or	a5,a5,a3
    3f1a:	25b6                	lhu	a3,10(a1)
    3f1c:	8fd5                	or	a5,a5,a3
    3f1e:	a55e                	sh	a5,12(a0)
    3f20:	295e                	lhu	a5,20(a0)
    3f22:	07c2                	slli	a5,a5,0x10
    3f24:	83c1                	srli	a5,a5,0x10
    3f26:	cff7f793          	andi	a5,a5,-769
    3f2a:	8fd9                	or	a5,a5,a4
    3f2c:	a95e                	sh	a5,20(a0)
    3f2e:	0808                	addi	a0,sp,16
    3f30:	defff0ef          	jal	ra,3d1e <RCC_GetClocksFreq>
    3f34:	400147b7          	lui	a5,0x40014
    3f38:	80078793          	addi	a5,a5,-2048 # 40013800 <_eusrstack+0x2000e800>
    3f3c:	45b2                	lw	a1,12(sp)
    3f3e:	02f41e63          	bne	s0,a5,3f7a <USART_Init+0x8c>
    3f42:	47f2                	lw	a5,28(sp)
    3f44:	4765                	li	a4,25
    3f46:	02e787b3          	mul	a5,a5,a4
    3f4a:	4198                	lw	a4,0(a1)
    3f4c:	06400693          	li	a3,100
    3f50:	070a                	slli	a4,a4,0x2
    3f52:	02e7d7b3          	divu	a5,a5,a4
    3f56:	02d7d733          	divu	a4,a5,a3
    3f5a:	02d7f7b3          	remu	a5,a5,a3
    3f5e:	0712                	slli	a4,a4,0x4
    3f60:	0792                	slli	a5,a5,0x4
    3f62:	03278793          	addi	a5,a5,50
    3f66:	02d7d7b3          	divu	a5,a5,a3
    3f6a:	8bbd                	andi	a5,a5,15
    3f6c:	8fd9                	or	a5,a5,a4
    3f6e:	07c2                	slli	a5,a5,0x10
    3f70:	83c1                	srli	a5,a5,0x10
    3f72:	a41e                	sh	a5,8(s0)
    3f74:	6105                	addi	sp,sp,32
    3f76:	9defc06f          	j	154 <__riscv_restore_0>
    3f7a:	47e2                	lw	a5,24(sp)
    3f7c:	b7e1                	j	3f44 <USART_Init+0x56>

00003f7e <USART_Cmd>:
    3f7e:	c591                	beqz	a1,3f8a <USART_Cmd+0xc>
    3f80:	255e                	lhu	a5,12(a0)
    3f82:	6709                	lui	a4,0x2
    3f84:	8fd9                	or	a5,a5,a4
    3f86:	a55e                	sh	a5,12(a0)
    3f88:	8082                	ret
    3f8a:	255a                	lhu	a4,12(a0)
    3f8c:	77f9                	lui	a5,0xffffe
    3f8e:	17fd                	addi	a5,a5,-1
    3f90:	8ff9                	and	a5,a5,a4
    3f92:	bfd5                	j	3f86 <USART_Cmd+0x8>

00003f94 <USART_SendData>:
    3f94:	1ff5f593          	andi	a1,a1,511
    3f98:	a14e                	sh	a1,4(a0)
    3f9a:	8082                	ret

00003f9c <USART_GetFlagStatus>:
    3f9c:	210a                	lhu	a0,0(a0)
    3f9e:	8d6d                	and	a0,a0,a1
    3fa0:	00a03533          	snez	a0,a0
    3fa4:	8082                	ret

00003fa6 <Delay_Init>:
    3fa6:	8181a783          	lw	a5,-2024(gp) # 20000230 <SystemCoreClock>
    3faa:	007a1737          	lui	a4,0x7a1
    3fae:	20070713          	addi	a4,a4,512 # 7a1200 <_data_lma+0x79b16c>
    3fb2:	02e7d7b3          	divu	a5,a5,a4
    3fb6:	0ff7f793          	andi	a5,a5,255
    3fba:	8cf18723          	sb	a5,-1842(gp) # 200002e6 <p_us>
    3fbe:	3e800713          	li	a4,1000
    3fc2:	02e787b3          	mul	a5,a5,a4
    3fc6:	8cf19623          	sh	a5,-1844(gp) # 200002e4 <p_ms>
    3fca:	8082                	ret

00003fcc <Delay_Us>:
    3fcc:	e000f7b7          	lui	a5,0xe000f
    3fd0:	43d8                	lw	a4,4(a5)
    3fd2:	4681                	li	a3,0
    3fd4:	9b79                	andi	a4,a4,-2
    3fd6:	c3d8                	sw	a4,4(a5)
    3fd8:	8ce1c703          	lbu	a4,-1842(gp) # 200002e6 <p_us>
    3fdc:	02a70633          	mul	a2,a4,a0
    3fe0:	cb90                	sw	a2,16(a5)
    3fe2:	cbd4                	sw	a3,20(a5)
    3fe4:	4398                	lw	a4,0(a5)
    3fe6:	01076713          	ori	a4,a4,16
    3fea:	c398                	sw	a4,0(a5)
    3fec:	4398                	lw	a4,0(a5)
    3fee:	02176713          	ori	a4,a4,33
    3ff2:	c398                	sw	a4,0(a5)
    3ff4:	43d8                	lw	a4,4(a5)
    3ff6:	8b05                	andi	a4,a4,1
    3ff8:	df75                	beqz	a4,3ff4 <Delay_Us+0x28>
    3ffa:	4398                	lw	a4,0(a5)
    3ffc:	9b79                	andi	a4,a4,-2
    3ffe:	c398                	sw	a4,0(a5)
    4000:	8082                	ret

00004002 <Delay_Ms>:
    4002:	e000f7b7          	lui	a5,0xe000f
    4006:	43d8                	lw	a4,4(a5)
    4008:	4681                	li	a3,0
    400a:	9b79                	andi	a4,a4,-2
    400c:	c3d8                	sw	a4,4(a5)
    400e:	8cc1d703          	lhu	a4,-1844(gp) # 200002e4 <p_ms>
    4012:	02a70633          	mul	a2,a4,a0
    4016:	cb90                	sw	a2,16(a5)
    4018:	cbd4                	sw	a3,20(a5)
    401a:	4398                	lw	a4,0(a5)
    401c:	01076713          	ori	a4,a4,16
    4020:	c398                	sw	a4,0(a5)
    4022:	4398                	lw	a4,0(a5)
    4024:	02176713          	ori	a4,a4,33
    4028:	c398                	sw	a4,0(a5)
    402a:	43d8                	lw	a4,4(a5)
    402c:	8b05                	andi	a4,a4,1
    402e:	df75                	beqz	a4,402a <Delay_Ms+0x28>
    4030:	4398                	lw	a4,0(a5)
    4032:	9b79                	andi	a4,a4,-2
    4034:	c398                	sw	a4,0(a5)
    4036:	8082                	ret

00004038 <USART_Printf_Init>:
    4038:	8f8fc2ef          	jal	t0,130 <__riscv_save_0>
    403c:	842a                	mv	s0,a0
    403e:	6511                	lui	a0,0x4
    4040:	1101                	addi	sp,sp,-32
    4042:	4585                	li	a1,1
    4044:	0521                	addi	a0,a0,8
    4046:	d17ff0ef          	jal	ra,3d5c <RCC_APB2PeriphClockCmd>
    404a:	40000793          	li	a5,1024
    404e:	c23e                	sw	a5,4(sp)
    4050:	40011537          	lui	a0,0x40011
    4054:	4785                	li	a5,1
    4056:	c43e                	sw	a5,8(sp)
    4058:	004c                	addi	a1,sp,4
    405a:	47e1                	li	a5,24
    405c:	c0050513          	addi	a0,a0,-1024 # 40010c00 <_eusrstack+0x2000bc00>
    4060:	c63e                	sw	a5,12(sp)
    4062:	80bff0ef          	jal	ra,386c <GPIO_Init>
    4066:	c822                	sw	s0,16(sp)
    4068:	40014437          	lui	s0,0x40014
    406c:	000807b7          	lui	a5,0x80
    4070:	080c                	addi	a1,sp,16
    4072:	80040513          	addi	a0,s0,-2048 # 40013800 <_eusrstack+0x2000e800>
    4076:	cc3e                	sw	a5,24(sp)
    4078:	ca02                	sw	zero,20(sp)
    407a:	00011e23          	sh	zero,28(sp)
    407e:	e71ff0ef          	jal	ra,3eee <USART_Init>
    4082:	4585                	li	a1,1
    4084:	80040513          	addi	a0,s0,-2048
    4088:	ef7ff0ef          	jal	ra,3f7e <USART_Cmd>
    408c:	6105                	addi	sp,sp,32
    408e:	8c6fc06f          	j	154 <__riscv_restore_0>

00004092 <_write>:
    4092:	884fc2ef          	jal	t0,116 <__riscv_save_4>
    4096:	400144b7          	lui	s1,0x40014
    409a:	89ae                	mv	s3,a1
    409c:	8932                	mv	s2,a2
    409e:	4401                	li	s0,0
    40a0:	80048493          	addi	s1,s1,-2048 # 40013800 <_eusrstack+0x2000e800>
    40a4:	01244563          	blt	s0,s2,40ae <_write+0x1c>
    40a8:	854a                	mv	a0,s2
    40aa:	8a0fc06f          	j	14a <__riscv_restore_4>
    40ae:	04000593          	li	a1,64
    40b2:	8526                	mv	a0,s1
    40b4:	ee9ff0ef          	jal	ra,3f9c <USART_GetFlagStatus>
    40b8:	d97d                	beqz	a0,40ae <_write+0x1c>
    40ba:	008987b3          	add	a5,s3,s0
    40be:	00078583          	lb	a1,0(a5) # 80000 <_data_lma+0x79f6c>
    40c2:	8526                	mv	a0,s1
    40c4:	0405                	addi	s0,s0,1
    40c6:	05c2                	slli	a1,a1,0x10
    40c8:	81c1                	srli	a1,a1,0x10
    40ca:	ecbff0ef          	jal	ra,3f94 <USART_SendData>
    40ce:	bfd9                	j	40a4 <_write+0x12>

000040d0 <_sbrk>:
    40d0:	83018713          	addi	a4,gp,-2000 # 20000248 <curbrk.4445>
    40d4:	431c                	lw	a5,0(a4)
    40d6:	200016b7          	lui	a3,0x20001
    40da:	23068693          	addi	a3,a3,560 # 20001230 <_ebss>
    40de:	953e                	add	a0,a0,a5
    40e0:	00d56b63          	bltu	a0,a3,40f6 <_sbrk+0x26>
    40e4:	200046b7          	lui	a3,0x20004
    40e8:	00068693          	mv	a3,a3
    40ec:	00a6e563          	bltu	a3,a0,40f6 <_sbrk+0x26>
    40f0:	c308                	sw	a0,0(a4)
    40f2:	853e                	mv	a0,a5
    40f4:	8082                	ret
    40f6:	57fd                	li	a5,-1
    40f8:	bfed                	j	40f2 <_sbrk+0x22>

000040fa <atol>:
    40fa:	4629                	li	a2,10
    40fc:	4581                	li	a1,0
    40fe:	ae39                	j	441c <strtol>

00004100 <memcpy>:
    4100:	00a5c7b3          	xor	a5,a1,a0
    4104:	8b8d                	andi	a5,a5,3
    4106:	00c50733          	add	a4,a0,a2
    410a:	e781                	bnez	a5,4112 <memcpy+0x12>
    410c:	478d                	li	a5,3
    410e:	00c7ed63          	bltu	a5,a2,4128 <memcpy+0x28>
    4112:	87aa                	mv	a5,a0
    4114:	08e57e63          	bgeu	a0,a4,41b0 <memcpy+0xb0>
    4118:	2194                	lbu	a3,0(a1)
    411a:	0785                	addi	a5,a5,1
    411c:	0585                	addi	a1,a1,1
    411e:	fed78fa3          	sb	a3,-1(a5)
    4122:	fee7ebe3          	bltu	a5,a4,4118 <memcpy+0x18>
    4126:	8082                	ret
    4128:	00357693          	andi	a3,a0,3
    412c:	87aa                	mv	a5,a0
    412e:	ca89                	beqz	a3,4140 <memcpy+0x40>
    4130:	2194                	lbu	a3,0(a1)
    4132:	0785                	addi	a5,a5,1
    4134:	0585                	addi	a1,a1,1
    4136:	fed78fa3          	sb	a3,-1(a5)
    413a:	0037f693          	andi	a3,a5,3
    413e:	bfc5                	j	412e <memcpy+0x2e>
    4140:	ffc77693          	andi	a3,a4,-4
    4144:	fe068613          	addi	a2,a3,-32 # 20003fe0 <_ebss+0x2db0>
    4148:	06c7f063          	bgeu	a5,a2,41a8 <memcpy+0xa8>
    414c:	0005a383          	lw	t2,0(a1)
    4150:	0045a283          	lw	t0,4(a1)
    4154:	0085af83          	lw	t6,8(a1)
    4158:	00c5af03          	lw	t5,12(a1)
    415c:	0105ae83          	lw	t4,16(a1)
    4160:	0145ae03          	lw	t3,20(a1)
    4164:	0185a303          	lw	t1,24(a1)
    4168:	01c5a883          	lw	a7,28(a1)
    416c:	02458593          	addi	a1,a1,36
    4170:	0077a023          	sw	t2,0(a5)
    4174:	ffc5a803          	lw	a6,-4(a1)
    4178:	0057a223          	sw	t0,4(a5)
    417c:	01f7a423          	sw	t6,8(a5)
    4180:	01e7a623          	sw	t5,12(a5)
    4184:	01d7a823          	sw	t4,16(a5)
    4188:	01c7aa23          	sw	t3,20(a5)
    418c:	0067ac23          	sw	t1,24(a5)
    4190:	0117ae23          	sw	a7,28(a5)
    4194:	02478793          	addi	a5,a5,36
    4198:	ff07ae23          	sw	a6,-4(a5)
    419c:	b775                	j	4148 <memcpy+0x48>
    419e:	4190                	lw	a2,0(a1)
    41a0:	0791                	addi	a5,a5,4
    41a2:	0591                	addi	a1,a1,4
    41a4:	fec7ae23          	sw	a2,-4(a5)
    41a8:	fed7ebe3          	bltu	a5,a3,419e <memcpy+0x9e>
    41ac:	f6e7e6e3          	bltu	a5,a4,4118 <memcpy+0x18>
    41b0:	8082                	ret

000041b2 <iprintf>:
    41b2:	7139                	addi	sp,sp,-64
    41b4:	da3e                	sw	a5,52(sp)
    41b6:	d22e                	sw	a1,36(sp)
    41b8:	d432                	sw	a2,40(sp)
    41ba:	d636                	sw	a3,44(sp)
    41bc:	d83a                	sw	a4,48(sp)
    41be:	dc42                	sw	a6,56(sp)
    41c0:	de46                	sw	a7,60(sp)
    41c2:	83418793          	addi	a5,gp,-1996 # 2000024c <_impure_ptr>
    41c6:	cc22                	sw	s0,24(sp)
    41c8:	4380                	lw	s0,0(a5)
    41ca:	ca26                	sw	s1,20(sp)
    41cc:	ce06                	sw	ra,28(sp)
    41ce:	84aa                	mv	s1,a0
    41d0:	c409                	beqz	s0,41da <iprintf+0x28>
    41d2:	4c1c                	lw	a5,24(s0)
    41d4:	e399                	bnez	a5,41da <iprintf+0x28>
    41d6:	8522                	mv	a0,s0
    41d8:	259d                	jal	483e <__sinit>
    41da:	440c                	lw	a1,8(s0)
    41dc:	1054                	addi	a3,sp,36
    41de:	8626                	mv	a2,s1
    41e0:	8522                	mv	a0,s0
    41e2:	c636                	sw	a3,12(sp)
    41e4:	2d9000ef          	jal	ra,4cbc <_vfiprintf_r>
    41e8:	40f2                	lw	ra,28(sp)
    41ea:	4462                	lw	s0,24(sp)
    41ec:	44d2                	lw	s1,20(sp)
    41ee:	6121                	addi	sp,sp,64
    41f0:	8082                	ret

000041f2 <_puts_r>:
    41f2:	1101                	addi	sp,sp,-32
    41f4:	ca26                	sw	s1,20(sp)
    41f6:	c84a                	sw	s2,16(sp)
    41f8:	ce06                	sw	ra,28(sp)
    41fa:	cc22                	sw	s0,24(sp)
    41fc:	c64e                	sw	s3,12(sp)
    41fe:	c452                	sw	s4,8(sp)
    4200:	84aa                	mv	s1,a0
    4202:	892e                	mv	s2,a1
    4204:	c501                	beqz	a0,420c <_puts_r+0x1a>
    4206:	4d1c                	lw	a5,24(a0)
    4208:	e391                	bnez	a5,420c <_puts_r+0x1a>
    420a:	2d15                	jal	483e <__sinit>
    420c:	4c9c                	lw	a5,24(s1)
    420e:	4480                	lw	s0,8(s1)
    4210:	e399                	bnez	a5,4216 <_puts_r+0x24>
    4212:	8526                	mv	a0,s1
    4214:	252d                	jal	483e <__sinit>
    4216:	00002797          	auipc	a5,0x2
    421a:	cee78793          	addi	a5,a5,-786 # 5f04 <__sf_fake_stdin>
    421e:	02f41b63          	bne	s0,a5,4254 <_puts_r+0x62>
    4222:	40c0                	lw	s0,4(s1)
    4224:	245e                	lhu	a5,12(s0)
    4226:	8ba1                	andi	a5,a5,8
    4228:	c7b1                	beqz	a5,4274 <_puts_r+0x82>
    422a:	481c                	lw	a5,16(s0)
    422c:	c7a1                	beqz	a5,4274 <_puts_r+0x82>
    422e:	59fd                	li	s3,-1
    4230:	4a29                	li	s4,10
    4232:	441c                	lw	a5,8(s0)
    4234:	00094583          	lbu	a1,0(s2)
    4238:	17fd                	addi	a5,a5,-1
    423a:	e9b1                	bnez	a1,428e <_puts_r+0x9c>
    423c:	c41c                	sw	a5,8(s0)
    423e:	0607dd63          	bgez	a5,42b8 <_puts_r+0xc6>
    4242:	8622                	mv	a2,s0
    4244:	45a9                	li	a1,10
    4246:	8526                	mv	a0,s1
    4248:	2acd                	jal	443a <__swbuf_r>
    424a:	57fd                	li	a5,-1
    424c:	02f50863          	beq	a0,a5,427c <_puts_r+0x8a>
    4250:	4529                	li	a0,10
    4252:	a035                	j	427e <_puts_r+0x8c>
    4254:	00002797          	auipc	a5,0x2
    4258:	cd078793          	addi	a5,a5,-816 # 5f24 <__sf_fake_stdout>
    425c:	00f41463          	bne	s0,a5,4264 <_puts_r+0x72>
    4260:	4480                	lw	s0,8(s1)
    4262:	b7c9                	j	4224 <_puts_r+0x32>
    4264:	00002797          	auipc	a5,0x2
    4268:	c8078793          	addi	a5,a5,-896 # 5ee4 <__sf_fake_stderr>
    426c:	faf41ce3          	bne	s0,a5,4224 <_puts_r+0x32>
    4270:	44c0                	lw	s0,12(s1)
    4272:	bf4d                	j	4224 <_puts_r+0x32>
    4274:	85a2                	mv	a1,s0
    4276:	8526                	mv	a0,s1
    4278:	2cbd                	jal	44f6 <__swsetup_r>
    427a:	d955                	beqz	a0,422e <_puts_r+0x3c>
    427c:	557d                	li	a0,-1
    427e:	40f2                	lw	ra,28(sp)
    4280:	4462                	lw	s0,24(sp)
    4282:	44d2                	lw	s1,20(sp)
    4284:	4942                	lw	s2,16(sp)
    4286:	49b2                	lw	s3,12(sp)
    4288:	4a22                	lw	s4,8(sp)
    428a:	6105                	addi	sp,sp,32
    428c:	8082                	ret
    428e:	c41c                	sw	a5,8(s0)
    4290:	0905                	addi	s2,s2,1
    4292:	0007d763          	bgez	a5,42a0 <_puts_r+0xae>
    4296:	4c18                	lw	a4,24(s0)
    4298:	00e7ca63          	blt	a5,a4,42ac <_puts_r+0xba>
    429c:	01458863          	beq	a1,s4,42ac <_puts_r+0xba>
    42a0:	401c                	lw	a5,0(s0)
    42a2:	00178713          	addi	a4,a5,1
    42a6:	c018                	sw	a4,0(s0)
    42a8:	a38c                	sb	a1,0(a5)
    42aa:	b761                	j	4232 <_puts_r+0x40>
    42ac:	8622                	mv	a2,s0
    42ae:	8526                	mv	a0,s1
    42b0:	2269                	jal	443a <__swbuf_r>
    42b2:	f93510e3          	bne	a0,s3,4232 <_puts_r+0x40>
    42b6:	b7d9                	j	427c <_puts_r+0x8a>
    42b8:	401c                	lw	a5,0(s0)
    42ba:	00178713          	addi	a4,a5,1
    42be:	c018                	sw	a4,0(s0)
    42c0:	4729                	li	a4,10
    42c2:	a398                	sb	a4,0(a5)
    42c4:	b771                	j	4250 <_puts_r+0x5e>

000042c6 <puts>:
    42c6:	83418793          	addi	a5,gp,-1996 # 2000024c <_impure_ptr>
    42ca:	85aa                	mv	a1,a0
    42cc:	4388                	lw	a0,0(a5)
    42ce:	f25ff06f          	j	41f2 <_puts_r>

000042d2 <strlen>:
    42d2:	87aa                	mv	a5,a0
    42d4:	0785                	addi	a5,a5,1
    42d6:	fff7c703          	lbu	a4,-1(a5)
    42da:	ff6d                	bnez	a4,42d4 <strlen+0x2>
    42dc:	40a78533          	sub	a0,a5,a0
    42e0:	157d                	addi	a0,a0,-1
    42e2:	8082                	ret

000042e4 <_strtol_l.isra.0>:
    42e4:	7179                	addi	sp,sp,-48
    42e6:	d04a                	sw	s2,32(sp)
    42e8:	ce4e                	sw	s3,28(sp)
    42ea:	d606                	sw	ra,44(sp)
    42ec:	d422                	sw	s0,40(sp)
    42ee:	d226                	sw	s1,36(sp)
    42f0:	89aa                	mv	s3,a0
    42f2:	892e                	mv	s2,a1
    42f4:	00190493          	addi	s1,s2,1
    42f8:	fff4c403          	lbu	s0,-1(s1)
    42fc:	853a                	mv	a0,a4
    42fe:	c636                	sw	a3,12(sp)
    4300:	c432                	sw	a2,8(sp)
    4302:	c22e                	sw	a1,4(sp)
    4304:	c03a                	sw	a4,0(sp)
    4306:	257d                	jal	49b4 <__locale_ctype_ptr_l>
    4308:	9522                	add	a0,a0,s0
    430a:	311c                	lbu	a5,1(a0)
    430c:	4702                	lw	a4,0(sp)
    430e:	4592                	lw	a1,4(sp)
    4310:	8ba1                	andi	a5,a5,8
    4312:	4622                	lw	a2,8(sp)
    4314:	46b2                	lw	a3,12(sp)
    4316:	e3d1                	bnez	a5,439a <_strtol_l.isra.0+0xb6>
    4318:	02d00793          	li	a5,45
    431c:	08f41163          	bne	s0,a5,439e <_strtol_l.isra.0+0xba>
    4320:	209c                	lbu	a5,0(s1)
    4322:	4305                	li	t1,1
    4324:	00290493          	addi	s1,s2,2
    4328:	c6e5                	beqz	a3,4410 <_strtol_l.isra.0+0x12c>
    432a:	4741                	li	a4,16
    432c:	02e69063          	bne	a3,a4,434c <_strtol_l.isra.0+0x68>
    4330:	03000713          	li	a4,48
    4334:	00e79c63          	bne	a5,a4,434c <_strtol_l.isra.0+0x68>
    4338:	209c                	lbu	a5,0(s1)
    433a:	05800713          	li	a4,88
    433e:	0df7f793          	andi	a5,a5,223
    4342:	0ce79263          	bne	a5,a4,4406 <_strtol_l.isra.0+0x122>
    4346:	309c                	lbu	a5,1(s1)
    4348:	46c1                	li	a3,16
    434a:	0489                	addi	s1,s1,2
    434c:	800008b7          	lui	a7,0x80000
    4350:	00031463          	bnez	t1,4358 <_strtol_l.isra.0+0x74>
    4354:	fff8c893          	not	a7,a7
    4358:	02d8ff33          	remu	t5,a7,a3
    435c:	4801                	li	a6,0
    435e:	4501                	li	a0,0
    4360:	4fa5                	li	t6,9
    4362:	4ee5                	li	t4,25
    4364:	52fd                	li	t0,-1
    4366:	02d8de33          	divu	t3,a7,a3
    436a:	fd078713          	addi	a4,a5,-48
    436e:	04efe363          	bltu	t6,a4,43b4 <_strtol_l.isra.0+0xd0>
    4372:	87ba                	mv	a5,a4
    4374:	04d7de63          	bge	a5,a3,43d0 <_strtol_l.isra.0+0xec>
    4378:	00580d63          	beq	a6,t0,4392 <_strtol_l.isra.0+0xae>
    437c:	587d                	li	a6,-1
    437e:	00ae6a63          	bltu	t3,a0,4392 <_strtol_l.isra.0+0xae>
    4382:	00ae1463          	bne	t3,a0,438a <_strtol_l.isra.0+0xa6>
    4386:	00ff4663          	blt	t5,a5,4392 <_strtol_l.isra.0+0xae>
    438a:	4805                	li	a6,1
    438c:	02a68533          	mul	a0,a3,a0
    4390:	953e                	add	a0,a0,a5
    4392:	0485                	addi	s1,s1,1
    4394:	fff4c783          	lbu	a5,-1(s1)
    4398:	bfc9                	j	436a <_strtol_l.isra.0+0x86>
    439a:	8926                	mv	s2,s1
    439c:	bfa1                	j	42f4 <_strtol_l.isra.0+0x10>
    439e:	02b00793          	li	a5,43
    43a2:	00f40563          	beq	s0,a5,43ac <_strtol_l.isra.0+0xc8>
    43a6:	87a2                	mv	a5,s0
    43a8:	4301                	li	t1,0
    43aa:	bfbd                	j	4328 <_strtol_l.isra.0+0x44>
    43ac:	209c                	lbu	a5,0(s1)
    43ae:	00290493          	addi	s1,s2,2
    43b2:	bfdd                	j	43a8 <_strtol_l.isra.0+0xc4>
    43b4:	fbf78713          	addi	a4,a5,-65
    43b8:	00eee563          	bltu	t4,a4,43c2 <_strtol_l.isra.0+0xde>
    43bc:	fc978793          	addi	a5,a5,-55
    43c0:	bf55                	j	4374 <_strtol_l.isra.0+0x90>
    43c2:	f9f78713          	addi	a4,a5,-97
    43c6:	00eee563          	bltu	t4,a4,43d0 <_strtol_l.isra.0+0xec>
    43ca:	fa978793          	addi	a5,a5,-87
    43ce:	b75d                	j	4374 <_strtol_l.isra.0+0x90>
    43d0:	57fd                	li	a5,-1
    43d2:	00f81f63          	bne	a6,a5,43f0 <_strtol_l.isra.0+0x10c>
    43d6:	02200793          	li	a5,34
    43da:	00f9a023          	sw	a5,0(s3)
    43de:	8546                	mv	a0,a7
    43e0:	ee19                	bnez	a2,43fe <_strtol_l.isra.0+0x11a>
    43e2:	50b2                	lw	ra,44(sp)
    43e4:	5422                	lw	s0,40(sp)
    43e6:	5492                	lw	s1,36(sp)
    43e8:	5902                	lw	s2,32(sp)
    43ea:	49f2                	lw	s3,28(sp)
    43ec:	6145                	addi	sp,sp,48
    43ee:	8082                	ret
    43f0:	00030463          	beqz	t1,43f8 <_strtol_l.isra.0+0x114>
    43f4:	40a00533          	neg	a0,a0
    43f8:	d66d                	beqz	a2,43e2 <_strtol_l.isra.0+0xfe>
    43fa:	00080463          	beqz	a6,4402 <_strtol_l.isra.0+0x11e>
    43fe:	fff48593          	addi	a1,s1,-1
    4402:	c20c                	sw	a1,0(a2)
    4404:	bff9                	j	43e2 <_strtol_l.isra.0+0xfe>
    4406:	03000793          	li	a5,48
    440a:	f2a9                	bnez	a3,434c <_strtol_l.isra.0+0x68>
    440c:	46a1                	li	a3,8
    440e:	bf3d                	j	434c <_strtol_l.isra.0+0x68>
    4410:	03000713          	li	a4,48
    4414:	f2e782e3          	beq	a5,a4,4338 <_strtol_l.isra.0+0x54>
    4418:	46a9                	li	a3,10
    441a:	bf0d                	j	434c <_strtol_l.isra.0+0x68>

0000441c <strtol>:
    441c:	83418793          	addi	a5,gp,-1996 # 2000024c <_impure_ptr>
    4420:	439c                	lw	a5,0(a5)
    4422:	86b2                	mv	a3,a2
    4424:	5398                	lw	a4,32(a5)
    4426:	e709                	bnez	a4,4430 <strtol+0x14>
    4428:	1fffc717          	auipc	a4,0x1fffc
    442c:	c8070713          	addi	a4,a4,-896 # 200000a8 <__global_locale>
    4430:	862e                	mv	a2,a1
    4432:	85aa                	mv	a1,a0
    4434:	853e                	mv	a0,a5
    4436:	eafff06f          	j	42e4 <_strtol_l.isra.0>

0000443a <__swbuf_r>:
    443a:	1101                	addi	sp,sp,-32
    443c:	cc22                	sw	s0,24(sp)
    443e:	ca26                	sw	s1,20(sp)
    4440:	c84a                	sw	s2,16(sp)
    4442:	ce06                	sw	ra,28(sp)
    4444:	c64e                	sw	s3,12(sp)
    4446:	84aa                	mv	s1,a0
    4448:	892e                	mv	s2,a1
    444a:	8432                	mv	s0,a2
    444c:	c501                	beqz	a0,4454 <__swbuf_r+0x1a>
    444e:	4d1c                	lw	a5,24(a0)
    4450:	e391                	bnez	a5,4454 <__swbuf_r+0x1a>
    4452:	26f5                	jal	483e <__sinit>
    4454:	00002797          	auipc	a5,0x2
    4458:	ab078793          	addi	a5,a5,-1360 # 5f04 <__sf_fake_stdin>
    445c:	06f41763          	bne	s0,a5,44ca <__swbuf_r+0x90>
    4460:	40c0                	lw	s0,4(s1)
    4462:	4c1c                	lw	a5,24(s0)
    4464:	c41c                	sw	a5,8(s0)
    4466:	245e                	lhu	a5,12(s0)
    4468:	8ba1                	andi	a5,a5,8
    446a:	c3c1                	beqz	a5,44ea <__swbuf_r+0xb0>
    446c:	481c                	lw	a5,16(s0)
    446e:	cfb5                	beqz	a5,44ea <__swbuf_r+0xb0>
    4470:	481c                	lw	a5,16(s0)
    4472:	4008                	lw	a0,0(s0)
    4474:	0ff97993          	andi	s3,s2,255
    4478:	0ff97913          	andi	s2,s2,255
    447c:	8d1d                	sub	a0,a0,a5
    447e:	485c                	lw	a5,20(s0)
    4480:	00f54663          	blt	a0,a5,448c <__swbuf_r+0x52>
    4484:	85a2                	mv	a1,s0
    4486:	8526                	mv	a0,s1
    4488:	2c69                	jal	4722 <_fflush_r>
    448a:	e525                	bnez	a0,44f2 <__swbuf_r+0xb8>
    448c:	441c                	lw	a5,8(s0)
    448e:	0505                	addi	a0,a0,1
    4490:	17fd                	addi	a5,a5,-1
    4492:	c41c                	sw	a5,8(s0)
    4494:	401c                	lw	a5,0(s0)
    4496:	00178713          	addi	a4,a5,1
    449a:	c018                	sw	a4,0(s0)
    449c:	01378023          	sb	s3,0(a5)
    44a0:	485c                	lw	a5,20(s0)
    44a2:	00a78863          	beq	a5,a0,44b2 <__swbuf_r+0x78>
    44a6:	245e                	lhu	a5,12(s0)
    44a8:	8b85                	andi	a5,a5,1
    44aa:	cb81                	beqz	a5,44ba <__swbuf_r+0x80>
    44ac:	47a9                	li	a5,10
    44ae:	00f91663          	bne	s2,a5,44ba <__swbuf_r+0x80>
    44b2:	85a2                	mv	a1,s0
    44b4:	8526                	mv	a0,s1
    44b6:	24b5                	jal	4722 <_fflush_r>
    44b8:	ed0d                	bnez	a0,44f2 <__swbuf_r+0xb8>
    44ba:	40f2                	lw	ra,28(sp)
    44bc:	4462                	lw	s0,24(sp)
    44be:	854a                	mv	a0,s2
    44c0:	44d2                	lw	s1,20(sp)
    44c2:	4942                	lw	s2,16(sp)
    44c4:	49b2                	lw	s3,12(sp)
    44c6:	6105                	addi	sp,sp,32
    44c8:	8082                	ret
    44ca:	00002797          	auipc	a5,0x2
    44ce:	a5a78793          	addi	a5,a5,-1446 # 5f24 <__sf_fake_stdout>
    44d2:	00f41463          	bne	s0,a5,44da <__swbuf_r+0xa0>
    44d6:	4480                	lw	s0,8(s1)
    44d8:	b769                	j	4462 <__swbuf_r+0x28>
    44da:	00002797          	auipc	a5,0x2
    44de:	a0a78793          	addi	a5,a5,-1526 # 5ee4 <__sf_fake_stderr>
    44e2:	f8f410e3          	bne	s0,a5,4462 <__swbuf_r+0x28>
    44e6:	44c0                	lw	s0,12(s1)
    44e8:	bfad                	j	4462 <__swbuf_r+0x28>
    44ea:	85a2                	mv	a1,s0
    44ec:	8526                	mv	a0,s1
    44ee:	2021                	jal	44f6 <__swsetup_r>
    44f0:	d141                	beqz	a0,4470 <__swbuf_r+0x36>
    44f2:	597d                	li	s2,-1
    44f4:	b7d9                	j	44ba <__swbuf_r+0x80>

000044f6 <__swsetup_r>:
    44f6:	1141                	addi	sp,sp,-16
    44f8:	83418793          	addi	a5,gp,-1996 # 2000024c <_impure_ptr>
    44fc:	c226                	sw	s1,4(sp)
    44fe:	4384                	lw	s1,0(a5)
    4500:	c422                	sw	s0,8(sp)
    4502:	c04a                	sw	s2,0(sp)
    4504:	c606                	sw	ra,12(sp)
    4506:	892a                	mv	s2,a0
    4508:	842e                	mv	s0,a1
    450a:	c489                	beqz	s1,4514 <__swsetup_r+0x1e>
    450c:	4c9c                	lw	a5,24(s1)
    450e:	e399                	bnez	a5,4514 <__swsetup_r+0x1e>
    4510:	8526                	mv	a0,s1
    4512:	2635                	jal	483e <__sinit>
    4514:	00002797          	auipc	a5,0x2
    4518:	9f078793          	addi	a5,a5,-1552 # 5f04 <__sf_fake_stdin>
    451c:	02f41b63          	bne	s0,a5,4552 <__swsetup_r+0x5c>
    4520:	40c0                	lw	s0,4(s1)
    4522:	00c41703          	lh	a4,12(s0)
    4526:	01071793          	slli	a5,a4,0x10
    452a:	83c1                	srli	a5,a5,0x10
    452c:	0087f693          	andi	a3,a5,8
    4530:	eaad                	bnez	a3,45a2 <__swsetup_r+0xac>
    4532:	0107f693          	andi	a3,a5,16
    4536:	ee95                	bnez	a3,4572 <__swsetup_r+0x7c>
    4538:	47a5                	li	a5,9
    453a:	00f92023          	sw	a5,0(s2)
    453e:	04076713          	ori	a4,a4,64
    4542:	a45a                	sh	a4,12(s0)
    4544:	557d                	li	a0,-1
    4546:	40b2                	lw	ra,12(sp)
    4548:	4422                	lw	s0,8(sp)
    454a:	4492                	lw	s1,4(sp)
    454c:	4902                	lw	s2,0(sp)
    454e:	0141                	addi	sp,sp,16
    4550:	8082                	ret
    4552:	00002797          	auipc	a5,0x2
    4556:	9d278793          	addi	a5,a5,-1582 # 5f24 <__sf_fake_stdout>
    455a:	00f41463          	bne	s0,a5,4562 <__swsetup_r+0x6c>
    455e:	4480                	lw	s0,8(s1)
    4560:	b7c9                	j	4522 <__swsetup_r+0x2c>
    4562:	00002797          	auipc	a5,0x2
    4566:	98278793          	addi	a5,a5,-1662 # 5ee4 <__sf_fake_stderr>
    456a:	faf41ce3          	bne	s0,a5,4522 <__swsetup_r+0x2c>
    456e:	44c0                	lw	s0,12(s1)
    4570:	bf4d                	j	4522 <__swsetup_r+0x2c>
    4572:	8b91                	andi	a5,a5,4
    4574:	c39d                	beqz	a5,459a <__swsetup_r+0xa4>
    4576:	584c                	lw	a1,52(s0)
    4578:	c989                	beqz	a1,458a <__swsetup_r+0x94>
    457a:	04440793          	addi	a5,s0,68
    457e:	00f58463          	beq	a1,a5,4586 <__swsetup_r+0x90>
    4582:	854a                	mv	a0,s2
    4584:	2b89                	jal	4ad6 <_free_r>
    4586:	02042a23          	sw	zero,52(s0)
    458a:	245e                	lhu	a5,12(s0)
    458c:	00042223          	sw	zero,4(s0)
    4590:	fdb7f793          	andi	a5,a5,-37
    4594:	a45e                	sh	a5,12(s0)
    4596:	481c                	lw	a5,16(s0)
    4598:	c01c                	sw	a5,0(s0)
    459a:	245e                	lhu	a5,12(s0)
    459c:	0087e793          	ori	a5,a5,8
    45a0:	a45e                	sh	a5,12(s0)
    45a2:	481c                	lw	a5,16(s0)
    45a4:	eb99                	bnez	a5,45ba <__swsetup_r+0xc4>
    45a6:	245e                	lhu	a5,12(s0)
    45a8:	20000713          	li	a4,512
    45ac:	2807f793          	andi	a5,a5,640
    45b0:	00e78563          	beq	a5,a4,45ba <__swsetup_r+0xc4>
    45b4:	85a2                	mv	a1,s0
    45b6:	854a                	mv	a0,s2
    45b8:	29a9                	jal	4a12 <__smakebuf_r>
    45ba:	245e                	lhu	a5,12(s0)
    45bc:	0017f713          	andi	a4,a5,1
    45c0:	c31d                	beqz	a4,45e6 <__swsetup_r+0xf0>
    45c2:	485c                	lw	a5,20(s0)
    45c4:	00042423          	sw	zero,8(s0)
    45c8:	40f007b3          	neg	a5,a5
    45cc:	cc1c                	sw	a5,24(s0)
    45ce:	481c                	lw	a5,16(s0)
    45d0:	4501                	li	a0,0
    45d2:	fbb5                	bnez	a5,4546 <__swsetup_r+0x50>
    45d4:	00c41783          	lh	a5,12(s0)
    45d8:	0807f713          	andi	a4,a5,128
    45dc:	d72d                	beqz	a4,4546 <__swsetup_r+0x50>
    45de:	0407e793          	ori	a5,a5,64
    45e2:	a45e                	sh	a5,12(s0)
    45e4:	b785                	j	4544 <__swsetup_r+0x4e>
    45e6:	8b89                	andi	a5,a5,2
    45e8:	4701                	li	a4,0
    45ea:	e391                	bnez	a5,45ee <__swsetup_r+0xf8>
    45ec:	4858                	lw	a4,20(s0)
    45ee:	c418                	sw	a4,8(s0)
    45f0:	bff9                	j	45ce <__swsetup_r+0xd8>

000045f2 <__sflush_r>:
    45f2:	25de                	lhu	a5,12(a1)
    45f4:	1101                	addi	sp,sp,-32
    45f6:	cc22                	sw	s0,24(sp)
    45f8:	ca26                	sw	s1,20(sp)
    45fa:	ce06                	sw	ra,28(sp)
    45fc:	c84a                	sw	s2,16(sp)
    45fe:	c64e                	sw	s3,12(sp)
    4600:	0087f713          	andi	a4,a5,8
    4604:	84aa                	mv	s1,a0
    4606:	842e                	mv	s0,a1
    4608:	eb79                	bnez	a4,46de <__sflush_r+0xec>
    460a:	41d8                	lw	a4,4(a1)
    460c:	00e04d63          	bgtz	a4,4626 <__sflush_r+0x34>
    4610:	41b8                	lw	a4,64(a1)
    4612:	00e04a63          	bgtz	a4,4626 <__sflush_r+0x34>
    4616:	4501                	li	a0,0
    4618:	40f2                	lw	ra,28(sp)
    461a:	4462                	lw	s0,24(sp)
    461c:	44d2                	lw	s1,20(sp)
    461e:	4942                	lw	s2,16(sp)
    4620:	49b2                	lw	s3,12(sp)
    4622:	6105                	addi	sp,sp,32
    4624:	8082                	ret
    4626:	5458                	lw	a4,44(s0)
    4628:	d77d                	beqz	a4,4616 <__sflush_r+0x24>
    462a:	0004a903          	lw	s2,0(s1)
    462e:	01379693          	slli	a3,a5,0x13
    4632:	0004a023          	sw	zero,0(s1)
    4636:	0606db63          	bgez	a3,46ac <__sflush_r+0xba>
    463a:	4870                	lw	a2,84(s0)
    463c:	245e                	lhu	a5,12(s0)
    463e:	8b91                	andi	a5,a5,4
    4640:	c799                	beqz	a5,464e <__sflush_r+0x5c>
    4642:	405c                	lw	a5,4(s0)
    4644:	8e1d                	sub	a2,a2,a5
    4646:	585c                	lw	a5,52(s0)
    4648:	c399                	beqz	a5,464e <__sflush_r+0x5c>
    464a:	403c                	lw	a5,64(s0)
    464c:	8e1d                	sub	a2,a2,a5
    464e:	545c                	lw	a5,44(s0)
    4650:	500c                	lw	a1,32(s0)
    4652:	4681                	li	a3,0
    4654:	8526                	mv	a0,s1
    4656:	9782                	jalr	a5
    4658:	57fd                	li	a5,-1
    465a:	245a                	lhu	a4,12(s0)
    465c:	00f51d63          	bne	a0,a5,4676 <__sflush_r+0x84>
    4660:	4094                	lw	a3,0(s1)
    4662:	47f5                	li	a5,29
    4664:	06d7e863          	bltu	a5,a3,46d4 <__sflush_r+0xe2>
    4668:	204007b7          	lui	a5,0x20400
    466c:	0785                	addi	a5,a5,1
    466e:	00d7d7b3          	srl	a5,a5,a3
    4672:	8b85                	andi	a5,a5,1
    4674:	c3a5                	beqz	a5,46d4 <__sflush_r+0xe2>
    4676:	481c                	lw	a5,16(s0)
    4678:	00042223          	sw	zero,4(s0)
    467c:	c01c                	sw	a5,0(s0)
    467e:	01371793          	slli	a5,a4,0x13
    4682:	0007d863          	bgez	a5,4692 <__sflush_r+0xa0>
    4686:	57fd                	li	a5,-1
    4688:	00f51463          	bne	a0,a5,4690 <__sflush_r+0x9e>
    468c:	409c                	lw	a5,0(s1)
    468e:	e391                	bnez	a5,4692 <__sflush_r+0xa0>
    4690:	c868                	sw	a0,84(s0)
    4692:	584c                	lw	a1,52(s0)
    4694:	0124a023          	sw	s2,0(s1)
    4698:	ddbd                	beqz	a1,4616 <__sflush_r+0x24>
    469a:	04440793          	addi	a5,s0,68
    469e:	00f58463          	beq	a1,a5,46a6 <__sflush_r+0xb4>
    46a2:	8526                	mv	a0,s1
    46a4:	290d                	jal	4ad6 <_free_r>
    46a6:	02042a23          	sw	zero,52(s0)
    46aa:	b7b5                	j	4616 <__sflush_r+0x24>
    46ac:	500c                	lw	a1,32(s0)
    46ae:	4601                	li	a2,0
    46b0:	4685                	li	a3,1
    46b2:	8526                	mv	a0,s1
    46b4:	9702                	jalr	a4
    46b6:	57fd                	li	a5,-1
    46b8:	862a                	mv	a2,a0
    46ba:	f8f511e3          	bne	a0,a5,463c <__sflush_r+0x4a>
    46be:	409c                	lw	a5,0(s1)
    46c0:	dfb5                	beqz	a5,463c <__sflush_r+0x4a>
    46c2:	4775                	li	a4,29
    46c4:	00e78563          	beq	a5,a4,46ce <__sflush_r+0xdc>
    46c8:	4759                	li	a4,22
    46ca:	04e79363          	bne	a5,a4,4710 <__sflush_r+0x11e>
    46ce:	0124a023          	sw	s2,0(s1)
    46d2:	b791                	j	4616 <__sflush_r+0x24>
    46d4:	04076713          	ori	a4,a4,64
    46d8:	a45a                	sh	a4,12(s0)
    46da:	557d                	li	a0,-1
    46dc:	bf35                	j	4618 <__sflush_r+0x26>
    46de:	0105a983          	lw	s3,16(a1)
    46e2:	f2098ae3          	beqz	s3,4616 <__sflush_r+0x24>
    46e6:	0005a903          	lw	s2,0(a1)
    46ea:	8b8d                	andi	a5,a5,3
    46ec:	0135a023          	sw	s3,0(a1)
    46f0:	41390933          	sub	s2,s2,s3
    46f4:	4701                	li	a4,0
    46f6:	e391                	bnez	a5,46fa <__sflush_r+0x108>
    46f8:	49d8                	lw	a4,20(a1)
    46fa:	c418                	sw	a4,8(s0)
    46fc:	f1205de3          	blez	s2,4616 <__sflush_r+0x24>
    4700:	541c                	lw	a5,40(s0)
    4702:	500c                	lw	a1,32(s0)
    4704:	86ca                	mv	a3,s2
    4706:	864e                	mv	a2,s3
    4708:	8526                	mv	a0,s1
    470a:	9782                	jalr	a5
    470c:	00a04763          	bgtz	a0,471a <__sflush_r+0x128>
    4710:	245e                	lhu	a5,12(s0)
    4712:	0407e793          	ori	a5,a5,64
    4716:	a45e                	sh	a5,12(s0)
    4718:	b7c9                	j	46da <__sflush_r+0xe8>
    471a:	99aa                	add	s3,s3,a0
    471c:	40a90933          	sub	s2,s2,a0
    4720:	bff1                	j	46fc <__sflush_r+0x10a>

00004722 <_fflush_r>:
    4722:	499c                	lw	a5,16(a1)
    4724:	c3a5                	beqz	a5,4784 <_fflush_r+0x62>
    4726:	1101                	addi	sp,sp,-32
    4728:	cc22                	sw	s0,24(sp)
    472a:	ce06                	sw	ra,28(sp)
    472c:	842a                	mv	s0,a0
    472e:	c511                	beqz	a0,473a <_fflush_r+0x18>
    4730:	4d1c                	lw	a5,24(a0)
    4732:	e781                	bnez	a5,473a <_fflush_r+0x18>
    4734:	c62e                	sw	a1,12(sp)
    4736:	2221                	jal	483e <__sinit>
    4738:	45b2                	lw	a1,12(sp)
    473a:	00001797          	auipc	a5,0x1
    473e:	7ca78793          	addi	a5,a5,1994 # 5f04 <__sf_fake_stdin>
    4742:	00f59c63          	bne	a1,a5,475a <_fflush_r+0x38>
    4746:	404c                	lw	a1,4(s0)
    4748:	00c59783          	lh	a5,12(a1)
    474c:	c79d                	beqz	a5,477a <_fflush_r+0x58>
    474e:	8522                	mv	a0,s0
    4750:	4462                	lw	s0,24(sp)
    4752:	40f2                	lw	ra,28(sp)
    4754:	6105                	addi	sp,sp,32
    4756:	e9dff06f          	j	45f2 <__sflush_r>
    475a:	00001797          	auipc	a5,0x1
    475e:	7ca78793          	addi	a5,a5,1994 # 5f24 <__sf_fake_stdout>
    4762:	00f59463          	bne	a1,a5,476a <_fflush_r+0x48>
    4766:	440c                	lw	a1,8(s0)
    4768:	b7c5                	j	4748 <_fflush_r+0x26>
    476a:	00001797          	auipc	a5,0x1
    476e:	77a78793          	addi	a5,a5,1914 # 5ee4 <__sf_fake_stderr>
    4772:	fcf59be3          	bne	a1,a5,4748 <_fflush_r+0x26>
    4776:	444c                	lw	a1,12(s0)
    4778:	bfc1                	j	4748 <_fflush_r+0x26>
    477a:	40f2                	lw	ra,28(sp)
    477c:	4462                	lw	s0,24(sp)
    477e:	4501                	li	a0,0
    4780:	6105                	addi	sp,sp,32
    4782:	8082                	ret
    4784:	4501                	li	a0,0
    4786:	8082                	ret

00004788 <std>:
    4788:	1141                	addi	sp,sp,-16
    478a:	c422                	sw	s0,8(sp)
    478c:	c606                	sw	ra,12(sp)
    478e:	842a                	mv	s0,a0
    4790:	a54e                	sh	a1,12(a0)
    4792:	a572                	sh	a2,14(a0)
    4794:	00052023          	sw	zero,0(a0)
    4798:	00052223          	sw	zero,4(a0)
    479c:	00052423          	sw	zero,8(a0)
    47a0:	06052223          	sw	zero,100(a0)
    47a4:	00052823          	sw	zero,16(a0)
    47a8:	00052a23          	sw	zero,20(a0)
    47ac:	00052c23          	sw	zero,24(a0)
    47b0:	4621                	li	a2,8
    47b2:	4581                	li	a1,0
    47b4:	05c50513          	addi	a0,a0,92
    47b8:	9a9fb0ef          	jal	ra,160 <memset>
    47bc:	00001797          	auipc	a5,0x1
    47c0:	b6878793          	addi	a5,a5,-1176 # 5324 <__sread>
    47c4:	d05c                	sw	a5,36(s0)
    47c6:	00001797          	auipc	a5,0x1
    47ca:	b8a78793          	addi	a5,a5,-1142 # 5350 <__swrite>
    47ce:	d41c                	sw	a5,40(s0)
    47d0:	00001797          	auipc	a5,0x1
    47d4:	bc878793          	addi	a5,a5,-1080 # 5398 <__sseek>
    47d8:	d45c                	sw	a5,44(s0)
    47da:	00001797          	auipc	a5,0x1
    47de:	bee78793          	addi	a5,a5,-1042 # 53c8 <__sclose>
    47e2:	d000                	sw	s0,32(s0)
    47e4:	d81c                	sw	a5,48(s0)
    47e6:	40b2                	lw	ra,12(sp)
    47e8:	4422                	lw	s0,8(sp)
    47ea:	0141                	addi	sp,sp,16
    47ec:	8082                	ret

000047ee <_cleanup_r>:
    47ee:	00000597          	auipc	a1,0x0
    47f2:	f3458593          	addi	a1,a1,-204 # 4722 <_fflush_r>
    47f6:	aa91                	j	494a <_fwalk_reent>

000047f8 <__sfmoreglue>:
    47f8:	1141                	addi	sp,sp,-16
    47fa:	c226                	sw	s1,4(sp)
    47fc:	06800613          	li	a2,104
    4800:	fff58493          	addi	s1,a1,-1
    4804:	02c484b3          	mul	s1,s1,a2
    4808:	c04a                	sw	s2,0(sp)
    480a:	892e                	mv	s2,a1
    480c:	c422                	sw	s0,8(sp)
    480e:	c606                	sw	ra,12(sp)
    4810:	07448593          	addi	a1,s1,116
    4814:	26ad                	jal	4b7e <_malloc_r>
    4816:	842a                	mv	s0,a0
    4818:	cd01                	beqz	a0,4830 <__sfmoreglue+0x38>
    481a:	00052023          	sw	zero,0(a0)
    481e:	01252223          	sw	s2,4(a0)
    4822:	0531                	addi	a0,a0,12
    4824:	c408                	sw	a0,8(s0)
    4826:	06848613          	addi	a2,s1,104
    482a:	4581                	li	a1,0
    482c:	935fb0ef          	jal	ra,160 <memset>
    4830:	8522                	mv	a0,s0
    4832:	40b2                	lw	ra,12(sp)
    4834:	4422                	lw	s0,8(sp)
    4836:	4492                	lw	s1,4(sp)
    4838:	4902                	lw	s2,0(sp)
    483a:	0141                	addi	sp,sp,16
    483c:	8082                	ret

0000483e <__sinit>:
    483e:	4d1c                	lw	a5,24(a0)
    4840:	e7a5                	bnez	a5,48a8 <__sinit+0x6a>
    4842:	1141                	addi	sp,sp,-16
    4844:	c606                	sw	ra,12(sp)
    4846:	c422                	sw	s0,8(sp)
    4848:	00000797          	auipc	a5,0x0
    484c:	fa678793          	addi	a5,a5,-90 # 47ee <_cleanup_r>
    4850:	d51c                	sw	a5,40(a0)
    4852:	83818793          	addi	a5,gp,-1992 # 20000250 <_global_impure_ptr>
    4856:	439c                	lw	a5,0(a5)
    4858:	04052423          	sw	zero,72(a0)
    485c:	04052623          	sw	zero,76(a0)
    4860:	04052823          	sw	zero,80(a0)
    4864:	00f51463          	bne	a0,a5,486c <__sinit+0x2e>
    4868:	4785                	li	a5,1
    486a:	cd1c                	sw	a5,24(a0)
    486c:	842a                	mv	s0,a0
    486e:	2835                	jal	48aa <__sfp>
    4870:	c048                	sw	a0,4(s0)
    4872:	8522                	mv	a0,s0
    4874:	281d                	jal	48aa <__sfp>
    4876:	c408                	sw	a0,8(s0)
    4878:	8522                	mv	a0,s0
    487a:	2805                	jal	48aa <__sfp>
    487c:	c448                	sw	a0,12(s0)
    487e:	4048                	lw	a0,4(s0)
    4880:	4601                	li	a2,0
    4882:	4591                	li	a1,4
    4884:	f05ff0ef          	jal	ra,4788 <std>
    4888:	4408                	lw	a0,8(s0)
    488a:	4605                	li	a2,1
    488c:	45a5                	li	a1,9
    488e:	efbff0ef          	jal	ra,4788 <std>
    4892:	4448                	lw	a0,12(s0)
    4894:	4609                	li	a2,2
    4896:	45c9                	li	a1,18
    4898:	ef1ff0ef          	jal	ra,4788 <std>
    489c:	4785                	li	a5,1
    489e:	cc1c                	sw	a5,24(s0)
    48a0:	40b2                	lw	ra,12(sp)
    48a2:	4422                	lw	s0,8(sp)
    48a4:	0141                	addi	sp,sp,16
    48a6:	8082                	ret
    48a8:	8082                	ret

000048aa <__sfp>:
    48aa:	1141                	addi	sp,sp,-16
    48ac:	83818793          	addi	a5,gp,-1992 # 20000250 <_global_impure_ptr>
    48b0:	c226                	sw	s1,4(sp)
    48b2:	4384                	lw	s1,0(a5)
    48b4:	c04a                	sw	s2,0(sp)
    48b6:	c606                	sw	ra,12(sp)
    48b8:	4c9c                	lw	a5,24(s1)
    48ba:	c422                	sw	s0,8(sp)
    48bc:	892a                	mv	s2,a0
    48be:	e781                	bnez	a5,48c6 <__sfp+0x1c>
    48c0:	8526                	mv	a0,s1
    48c2:	f7dff0ef          	jal	ra,483e <__sinit>
    48c6:	04848493          	addi	s1,s1,72
    48ca:	4480                	lw	s0,8(s1)
    48cc:	40dc                	lw	a5,4(s1)
    48ce:	17fd                	addi	a5,a5,-1
    48d0:	0007d663          	bgez	a5,48dc <__sfp+0x32>
    48d4:	409c                	lw	a5,0(s1)
    48d6:	cfb9                	beqz	a5,4934 <__sfp+0x8a>
    48d8:	4084                	lw	s1,0(s1)
    48da:	bfc5                	j	48ca <__sfp+0x20>
    48dc:	00c41703          	lh	a4,12(s0)
    48e0:	e739                	bnez	a4,492e <__sfp+0x84>
    48e2:	77c1                	lui	a5,0xffff0
    48e4:	0785                	addi	a5,a5,1
    48e6:	06042223          	sw	zero,100(s0)
    48ea:	00042023          	sw	zero,0(s0)
    48ee:	00042223          	sw	zero,4(s0)
    48f2:	00042423          	sw	zero,8(s0)
    48f6:	c45c                	sw	a5,12(s0)
    48f8:	00042823          	sw	zero,16(s0)
    48fc:	00042a23          	sw	zero,20(s0)
    4900:	00042c23          	sw	zero,24(s0)
    4904:	4621                	li	a2,8
    4906:	4581                	li	a1,0
    4908:	05c40513          	addi	a0,s0,92
    490c:	855fb0ef          	jal	ra,160 <memset>
    4910:	02042a23          	sw	zero,52(s0)
    4914:	02042c23          	sw	zero,56(s0)
    4918:	04042423          	sw	zero,72(s0)
    491c:	04042623          	sw	zero,76(s0)
    4920:	8522                	mv	a0,s0
    4922:	40b2                	lw	ra,12(sp)
    4924:	4422                	lw	s0,8(sp)
    4926:	4492                	lw	s1,4(sp)
    4928:	4902                	lw	s2,0(sp)
    492a:	0141                	addi	sp,sp,16
    492c:	8082                	ret
    492e:	06840413          	addi	s0,s0,104
    4932:	bf71                	j	48ce <__sfp+0x24>
    4934:	4591                	li	a1,4
    4936:	854a                	mv	a0,s2
    4938:	ec1ff0ef          	jal	ra,47f8 <__sfmoreglue>
    493c:	c088                	sw	a0,0(s1)
    493e:	fd49                	bnez	a0,48d8 <__sfp+0x2e>
    4940:	47b1                	li	a5,12
    4942:	00f92023          	sw	a5,0(s2)
    4946:	4401                	li	s0,0
    4948:	bfe1                	j	4920 <__sfp+0x76>

0000494a <_fwalk_reent>:
    494a:	7179                	addi	sp,sp,-48
    494c:	d422                	sw	s0,40(sp)
    494e:	d04a                	sw	s2,32(sp)
    4950:	cc52                	sw	s4,24(sp)
    4952:	ca56                	sw	s5,20(sp)
    4954:	c85a                	sw	s6,16(sp)
    4956:	c65e                	sw	s7,12(sp)
    4958:	d606                	sw	ra,44(sp)
    495a:	d226                	sw	s1,36(sp)
    495c:	ce4e                	sw	s3,28(sp)
    495e:	8a2a                	mv	s4,a0
    4960:	8aae                	mv	s5,a1
    4962:	04850413          	addi	s0,a0,72
    4966:	4901                	li	s2,0
    4968:	4b05                	li	s6,1
    496a:	5bfd                	li	s7,-1
    496c:	ec09                	bnez	s0,4986 <_fwalk_reent+0x3c>
    496e:	50b2                	lw	ra,44(sp)
    4970:	5422                	lw	s0,40(sp)
    4972:	854a                	mv	a0,s2
    4974:	5492                	lw	s1,36(sp)
    4976:	5902                	lw	s2,32(sp)
    4978:	49f2                	lw	s3,28(sp)
    497a:	4a62                	lw	s4,24(sp)
    497c:	4ad2                	lw	s5,20(sp)
    497e:	4b42                	lw	s6,16(sp)
    4980:	4bb2                	lw	s7,12(sp)
    4982:	6145                	addi	sp,sp,48
    4984:	8082                	ret
    4986:	4404                	lw	s1,8(s0)
    4988:	00442983          	lw	s3,4(s0)
    498c:	19fd                	addi	s3,s3,-1
    498e:	0009d463          	bgez	s3,4996 <_fwalk_reent+0x4c>
    4992:	4000                	lw	s0,0(s0)
    4994:	bfe1                	j	496c <_fwalk_reent+0x22>
    4996:	24de                	lhu	a5,12(s1)
    4998:	00fb7b63          	bgeu	s6,a5,49ae <_fwalk_reent+0x64>
    499c:	00e49783          	lh	a5,14(s1)
    49a0:	01778763          	beq	a5,s7,49ae <_fwalk_reent+0x64>
    49a4:	85a6                	mv	a1,s1
    49a6:	8552                	mv	a0,s4
    49a8:	9a82                	jalr	s5
    49aa:	00a96933          	or	s2,s2,a0
    49ae:	06848493          	addi	s1,s1,104
    49b2:	bfe9                	j	498c <_fwalk_reent+0x42>

000049b4 <__locale_ctype_ptr_l>:
    49b4:	0ec52503          	lw	a0,236(a0)
    49b8:	8082                	ret

000049ba <__swhatbuf_r>:
    49ba:	7119                	addi	sp,sp,-128
    49bc:	daa6                	sw	s1,116(sp)
    49be:	84ae                	mv	s1,a1
    49c0:	00e59583          	lh	a1,14(a1)
    49c4:	dca2                	sw	s0,120(sp)
    49c6:	de86                	sw	ra,124(sp)
    49c8:	8432                	mv	s0,a2
    49ca:	0005db63          	bgez	a1,49e0 <__swhatbuf_r+0x26>
    49ce:	24de                	lhu	a5,12(s1)
    49d0:	0006a023          	sw	zero,0(a3)
    49d4:	0807f793          	andi	a5,a5,128
    49d8:	e785                	bnez	a5,4a00 <__swhatbuf_r+0x46>
    49da:	40000793          	li	a5,1024
    49de:	a01d                	j	4a04 <__swhatbuf_r+0x4a>
    49e0:	0830                	addi	a2,sp,24
    49e2:	c636                	sw	a3,12(sp)
    49e4:	26f000ef          	jal	ra,5452 <_fstat_r>
    49e8:	46b2                	lw	a3,12(sp)
    49ea:	fe0542e3          	bltz	a0,49ce <__swhatbuf_r+0x14>
    49ee:	4772                	lw	a4,28(sp)
    49f0:	67bd                	lui	a5,0xf
    49f2:	8ff9                	and	a5,a5,a4
    49f4:	7779                	lui	a4,0xffffe
    49f6:	97ba                	add	a5,a5,a4
    49f8:	0017b793          	seqz	a5,a5
    49fc:	c29c                	sw	a5,0(a3)
    49fe:	bff1                	j	49da <__swhatbuf_r+0x20>
    4a00:	04000793          	li	a5,64
    4a04:	c01c                	sw	a5,0(s0)
    4a06:	50f6                	lw	ra,124(sp)
    4a08:	5466                	lw	s0,120(sp)
    4a0a:	54d6                	lw	s1,116(sp)
    4a0c:	4501                	li	a0,0
    4a0e:	6109                	addi	sp,sp,128
    4a10:	8082                	ret

00004a12 <__smakebuf_r>:
    4a12:	25de                	lhu	a5,12(a1)
    4a14:	1101                	addi	sp,sp,-32
    4a16:	cc22                	sw	s0,24(sp)
    4a18:	ce06                	sw	ra,28(sp)
    4a1a:	ca26                	sw	s1,20(sp)
    4a1c:	c84a                	sw	s2,16(sp)
    4a1e:	8b89                	andi	a5,a5,2
    4a20:	842e                	mv	s0,a1
    4a22:	cf89                	beqz	a5,4a3c <__smakebuf_r+0x2a>
    4a24:	04740793          	addi	a5,s0,71
    4a28:	c01c                	sw	a5,0(s0)
    4a2a:	c81c                	sw	a5,16(s0)
    4a2c:	4785                	li	a5,1
    4a2e:	c85c                	sw	a5,20(s0)
    4a30:	40f2                	lw	ra,28(sp)
    4a32:	4462                	lw	s0,24(sp)
    4a34:	44d2                	lw	s1,20(sp)
    4a36:	4942                	lw	s2,16(sp)
    4a38:	6105                	addi	sp,sp,32
    4a3a:	8082                	ret
    4a3c:	0074                	addi	a3,sp,12
    4a3e:	0030                	addi	a2,sp,8
    4a40:	84aa                	mv	s1,a0
    4a42:	f79ff0ef          	jal	ra,49ba <__swhatbuf_r>
    4a46:	45a2                	lw	a1,8(sp)
    4a48:	892a                	mv	s2,a0
    4a4a:	8526                	mv	a0,s1
    4a4c:	2a0d                	jal	4b7e <_malloc_r>
    4a4e:	e919                	bnez	a0,4a64 <__smakebuf_r+0x52>
    4a50:	00c41783          	lh	a5,12(s0)
    4a54:	2007f713          	andi	a4,a5,512
    4a58:	ff61                	bnez	a4,4a30 <__smakebuf_r+0x1e>
    4a5a:	9bf1                	andi	a5,a5,-4
    4a5c:	0027e793          	ori	a5,a5,2
    4a60:	a45e                	sh	a5,12(s0)
    4a62:	b7c9                	j	4a24 <__smakebuf_r+0x12>
    4a64:	00000797          	auipc	a5,0x0
    4a68:	d8a78793          	addi	a5,a5,-630 # 47ee <_cleanup_r>
    4a6c:	d49c                	sw	a5,40(s1)
    4a6e:	245e                	lhu	a5,12(s0)
    4a70:	c008                	sw	a0,0(s0)
    4a72:	c808                	sw	a0,16(s0)
    4a74:	0807e793          	ori	a5,a5,128
    4a78:	a45e                	sh	a5,12(s0)
    4a7a:	47a2                	lw	a5,8(sp)
    4a7c:	c85c                	sw	a5,20(s0)
    4a7e:	47b2                	lw	a5,12(sp)
    4a80:	cf81                	beqz	a5,4a98 <__smakebuf_r+0x86>
    4a82:	00e41583          	lh	a1,14(s0)
    4a86:	8526                	mv	a0,s1
    4a88:	1fd000ef          	jal	ra,5484 <_isatty_r>
    4a8c:	c511                	beqz	a0,4a98 <__smakebuf_r+0x86>
    4a8e:	245e                	lhu	a5,12(s0)
    4a90:	9bf1                	andi	a5,a5,-4
    4a92:	0017e793          	ori	a5,a5,1
    4a96:	a45e                	sh	a5,12(s0)
    4a98:	245e                	lhu	a5,12(s0)
    4a9a:	00f96933          	or	s2,s2,a5
    4a9e:	01241623          	sh	s2,12(s0)
    4aa2:	b779                	j	4a30 <__smakebuf_r+0x1e>

00004aa4 <__ascii_mbtowc>:
    4aa4:	ed91                	bnez	a1,4ac0 <__ascii_mbtowc+0x1c>
    4aa6:	1141                	addi	sp,sp,-16
    4aa8:	006c                	addi	a1,sp,12
    4aaa:	4501                	li	a0,0
    4aac:	ca01                	beqz	a2,4abc <__ascii_mbtowc+0x18>
    4aae:	5579                	li	a0,-2
    4ab0:	c691                	beqz	a3,4abc <__ascii_mbtowc+0x18>
    4ab2:	221c                	lbu	a5,0(a2)
    4ab4:	c19c                	sw	a5,0(a1)
    4ab6:	2208                	lbu	a0,0(a2)
    4ab8:	00a03533          	snez	a0,a0
    4abc:	0141                	addi	sp,sp,16
    4abe:	8082                	ret
    4ac0:	4501                	li	a0,0
    4ac2:	ca09                	beqz	a2,4ad4 <__ascii_mbtowc+0x30>
    4ac4:	5579                	li	a0,-2
    4ac6:	c699                	beqz	a3,4ad4 <__ascii_mbtowc+0x30>
    4ac8:	221c                	lbu	a5,0(a2)
    4aca:	c19c                	sw	a5,0(a1)
    4acc:	2208                	lbu	a0,0(a2)
    4ace:	00a03533          	snez	a0,a0
    4ad2:	8082                	ret
    4ad4:	8082                	ret

00004ad6 <_free_r>:
    4ad6:	c1dd                	beqz	a1,4b7c <_free_r+0xa6>
    4ad8:	ffc5a783          	lw	a5,-4(a1)
    4adc:	1141                	addi	sp,sp,-16
    4ade:	c422                	sw	s0,8(sp)
    4ae0:	c606                	sw	ra,12(sp)
    4ae2:	c226                	sw	s1,4(sp)
    4ae4:	ffc58413          	addi	s0,a1,-4
    4ae8:	0007d363          	bgez	a5,4aee <_free_r+0x18>
    4aec:	943e                	add	s0,s0,a5
    4aee:	84aa                	mv	s1,a0
    4af0:	211000ef          	jal	ra,5500 <__malloc_lock>
    4af4:	8d018793          	addi	a5,gp,-1840 # 200002e8 <__malloc_free_list>
    4af8:	439c                	lw	a5,0(a5)
    4afa:	ef81                	bnez	a5,4b12 <_free_r+0x3c>
    4afc:	00042223          	sw	zero,4(s0)
    4b00:	8c81a823          	sw	s0,-1840(gp) # 200002e8 <__malloc_free_list>
    4b04:	4422                	lw	s0,8(sp)
    4b06:	40b2                	lw	ra,12(sp)
    4b08:	8526                	mv	a0,s1
    4b0a:	4492                	lw	s1,4(sp)
    4b0c:	0141                	addi	sp,sp,16
    4b0e:	1f50006f          	j	5502 <__malloc_unlock>
    4b12:	00f47e63          	bgeu	s0,a5,4b2e <_free_r+0x58>
    4b16:	4014                	lw	a3,0(s0)
    4b18:	00d40733          	add	a4,s0,a3
    4b1c:	00e79663          	bne	a5,a4,4b28 <_free_r+0x52>
    4b20:	4398                	lw	a4,0(a5)
    4b22:	43dc                	lw	a5,4(a5)
    4b24:	9736                	add	a4,a4,a3
    4b26:	c018                	sw	a4,0(s0)
    4b28:	c05c                	sw	a5,4(s0)
    4b2a:	bfd9                	j	4b00 <_free_r+0x2a>
    4b2c:	87ba                	mv	a5,a4
    4b2e:	43d8                	lw	a4,4(a5)
    4b30:	c319                	beqz	a4,4b36 <_free_r+0x60>
    4b32:	fee47de3          	bgeu	s0,a4,4b2c <_free_r+0x56>
    4b36:	4394                	lw	a3,0(a5)
    4b38:	00d78633          	add	a2,a5,a3
    4b3c:	00861f63          	bne	a2,s0,4b5a <_free_r+0x84>
    4b40:	4010                	lw	a2,0(s0)
    4b42:	96b2                	add	a3,a3,a2
    4b44:	c394                	sw	a3,0(a5)
    4b46:	00d78633          	add	a2,a5,a3
    4b4a:	fac71de3          	bne	a4,a2,4b04 <_free_r+0x2e>
    4b4e:	4310                	lw	a2,0(a4)
    4b50:	4358                	lw	a4,4(a4)
    4b52:	96b2                	add	a3,a3,a2
    4b54:	c394                	sw	a3,0(a5)
    4b56:	c3d8                	sw	a4,4(a5)
    4b58:	b775                	j	4b04 <_free_r+0x2e>
    4b5a:	00c47563          	bgeu	s0,a2,4b64 <_free_r+0x8e>
    4b5e:	47b1                	li	a5,12
    4b60:	c09c                	sw	a5,0(s1)
    4b62:	b74d                	j	4b04 <_free_r+0x2e>
    4b64:	4010                	lw	a2,0(s0)
    4b66:	00c406b3          	add	a3,s0,a2
    4b6a:	00d71663          	bne	a4,a3,4b76 <_free_r+0xa0>
    4b6e:	4314                	lw	a3,0(a4)
    4b70:	4358                	lw	a4,4(a4)
    4b72:	96b2                	add	a3,a3,a2
    4b74:	c014                	sw	a3,0(s0)
    4b76:	c058                	sw	a4,4(s0)
    4b78:	c3c0                	sw	s0,4(a5)
    4b7a:	b769                	j	4b04 <_free_r+0x2e>
    4b7c:	8082                	ret

00004b7e <_malloc_r>:
    4b7e:	1101                	addi	sp,sp,-32
    4b80:	ca26                	sw	s1,20(sp)
    4b82:	00358493          	addi	s1,a1,3
    4b86:	98f1                	andi	s1,s1,-4
    4b88:	ce06                	sw	ra,28(sp)
    4b8a:	cc22                	sw	s0,24(sp)
    4b8c:	c84a                	sw	s2,16(sp)
    4b8e:	c64e                	sw	s3,12(sp)
    4b90:	04a1                	addi	s1,s1,8
    4b92:	47b1                	li	a5,12
    4b94:	04f4f363          	bgeu	s1,a5,4bda <_malloc_r+0x5c>
    4b98:	44b1                	li	s1,12
    4b9a:	04b4e263          	bltu	s1,a1,4bde <_malloc_r+0x60>
    4b9e:	892a                	mv	s2,a0
    4ba0:	161000ef          	jal	ra,5500 <__malloc_lock>
    4ba4:	8d018793          	addi	a5,gp,-1840 # 200002e8 <__malloc_free_list>
    4ba8:	4398                	lw	a4,0(a5)
    4baa:	843a                	mv	s0,a4
    4bac:	e039                	bnez	s0,4bf2 <_malloc_r+0x74>
    4bae:	8d418793          	addi	a5,gp,-1836 # 200002ec <__malloc_sbrk_start>
    4bb2:	439c                	lw	a5,0(a5)
    4bb4:	e791                	bnez	a5,4bc0 <_malloc_r+0x42>
    4bb6:	4581                	li	a1,0
    4bb8:	854a                	mv	a0,s2
    4bba:	2f25                	jal	52f2 <_sbrk_r>
    4bbc:	8ca1aa23          	sw	a0,-1836(gp) # 200002ec <__malloc_sbrk_start>
    4bc0:	85a6                	mv	a1,s1
    4bc2:	854a                	mv	a0,s2
    4bc4:	273d                	jal	52f2 <_sbrk_r>
    4bc6:	59fd                	li	s3,-1
    4bc8:	07351963          	bne	a0,s3,4c3a <_malloc_r+0xbc>
    4bcc:	47b1                	li	a5,12
    4bce:	00f92023          	sw	a5,0(s2)
    4bd2:	854a                	mv	a0,s2
    4bd4:	12f000ef          	jal	ra,5502 <__malloc_unlock>
    4bd8:	a029                	j	4be2 <_malloc_r+0x64>
    4bda:	fc04d0e3          	bgez	s1,4b9a <_malloc_r+0x1c>
    4bde:	47b1                	li	a5,12
    4be0:	c11c                	sw	a5,0(a0)
    4be2:	4501                	li	a0,0
    4be4:	40f2                	lw	ra,28(sp)
    4be6:	4462                	lw	s0,24(sp)
    4be8:	44d2                	lw	s1,20(sp)
    4bea:	4942                	lw	s2,16(sp)
    4bec:	49b2                	lw	s3,12(sp)
    4bee:	6105                	addi	sp,sp,32
    4bf0:	8082                	ret
    4bf2:	401c                	lw	a5,0(s0)
    4bf4:	8f85                	sub	a5,a5,s1
    4bf6:	0207cf63          	bltz	a5,4c34 <_malloc_r+0xb6>
    4bfa:	46ad                	li	a3,11
    4bfc:	00f6f663          	bgeu	a3,a5,4c08 <_malloc_r+0x8a>
    4c00:	c01c                	sw	a5,0(s0)
    4c02:	943e                	add	s0,s0,a5
    4c04:	c004                	sw	s1,0(s0)
    4c06:	a031                	j	4c12 <_malloc_r+0x94>
    4c08:	405c                	lw	a5,4(s0)
    4c0a:	02871363          	bne	a4,s0,4c30 <_malloc_r+0xb2>
    4c0e:	8cf1a823          	sw	a5,-1840(gp) # 200002e8 <__malloc_free_list>
    4c12:	854a                	mv	a0,s2
    4c14:	0ef000ef          	jal	ra,5502 <__malloc_unlock>
    4c18:	00b40513          	addi	a0,s0,11
    4c1c:	00440793          	addi	a5,s0,4
    4c20:	9961                	andi	a0,a0,-8
    4c22:	40f50733          	sub	a4,a0,a5
    4c26:	df5d                	beqz	a4,4be4 <_malloc_r+0x66>
    4c28:	943a                	add	s0,s0,a4
    4c2a:	8f89                	sub	a5,a5,a0
    4c2c:	c01c                	sw	a5,0(s0)
    4c2e:	bf5d                	j	4be4 <_malloc_r+0x66>
    4c30:	c35c                	sw	a5,4(a4)
    4c32:	b7c5                	j	4c12 <_malloc_r+0x94>
    4c34:	8722                	mv	a4,s0
    4c36:	4040                	lw	s0,4(s0)
    4c38:	bf95                	j	4bac <_malloc_r+0x2e>
    4c3a:	00350413          	addi	s0,a0,3
    4c3e:	9871                	andi	s0,s0,-4
    4c40:	fc8502e3          	beq	a0,s0,4c04 <_malloc_r+0x86>
    4c44:	40a405b3          	sub	a1,s0,a0
    4c48:	854a                	mv	a0,s2
    4c4a:	2565                	jal	52f2 <_sbrk_r>
    4c4c:	fb351ce3          	bne	a0,s3,4c04 <_malloc_r+0x86>
    4c50:	bfb5                	j	4bcc <_malloc_r+0x4e>

00004c52 <__sfputc_r>:
    4c52:	461c                	lw	a5,8(a2)
    4c54:	17fd                	addi	a5,a5,-1
    4c56:	c61c                	sw	a5,8(a2)
    4c58:	0007da63          	bgez	a5,4c6c <__sfputc_r+0x1a>
    4c5c:	4e18                	lw	a4,24(a2)
    4c5e:	00e7c563          	blt	a5,a4,4c68 <__sfputc_r+0x16>
    4c62:	47a9                	li	a5,10
    4c64:	00f59463          	bne	a1,a5,4c6c <__sfputc_r+0x1a>
    4c68:	fd2ff06f          	j	443a <__swbuf_r>
    4c6c:	421c                	lw	a5,0(a2)
    4c6e:	852e                	mv	a0,a1
    4c70:	00178713          	addi	a4,a5,1
    4c74:	c218                	sw	a4,0(a2)
    4c76:	a38c                	sb	a1,0(a5)
    4c78:	8082                	ret

00004c7a <__sfputs_r>:
    4c7a:	1101                	addi	sp,sp,-32
    4c7c:	cc22                	sw	s0,24(sp)
    4c7e:	ca26                	sw	s1,20(sp)
    4c80:	c84a                	sw	s2,16(sp)
    4c82:	c64e                	sw	s3,12(sp)
    4c84:	c452                	sw	s4,8(sp)
    4c86:	ce06                	sw	ra,28(sp)
    4c88:	892a                	mv	s2,a0
    4c8a:	89ae                	mv	s3,a1
    4c8c:	8432                	mv	s0,a2
    4c8e:	00d604b3          	add	s1,a2,a3
    4c92:	5a7d                	li	s4,-1
    4c94:	00941463          	bne	s0,s1,4c9c <__sfputs_r+0x22>
    4c98:	4501                	li	a0,0
    4c9a:	a809                	j	4cac <__sfputs_r+0x32>
    4c9c:	200c                	lbu	a1,0(s0)
    4c9e:	864e                	mv	a2,s3
    4ca0:	854a                	mv	a0,s2
    4ca2:	fb1ff0ef          	jal	ra,4c52 <__sfputc_r>
    4ca6:	0405                	addi	s0,s0,1
    4ca8:	ff4516e3          	bne	a0,s4,4c94 <__sfputs_r+0x1a>
    4cac:	40f2                	lw	ra,28(sp)
    4cae:	4462                	lw	s0,24(sp)
    4cb0:	44d2                	lw	s1,20(sp)
    4cb2:	4942                	lw	s2,16(sp)
    4cb4:	49b2                	lw	s3,12(sp)
    4cb6:	4a22                	lw	s4,8(sp)
    4cb8:	6105                	addi	sp,sp,32
    4cba:	8082                	ret

00004cbc <_vfiprintf_r>:
    4cbc:	7135                	addi	sp,sp,-160
    4cbe:	cd22                	sw	s0,152(sp)
    4cc0:	cb26                	sw	s1,148(sp)
    4cc2:	c94a                	sw	s2,144(sp)
    4cc4:	c74e                	sw	s3,140(sp)
    4cc6:	cf06                	sw	ra,156(sp)
    4cc8:	c552                	sw	s4,136(sp)
    4cca:	c356                	sw	s5,132(sp)
    4ccc:	c15a                	sw	s6,128(sp)
    4cce:	dede                	sw	s7,124(sp)
    4cd0:	dce2                	sw	s8,120(sp)
    4cd2:	dae6                	sw	s9,116(sp)
    4cd4:	89aa                	mv	s3,a0
    4cd6:	84ae                	mv	s1,a1
    4cd8:	8932                	mv	s2,a2
    4cda:	8436                	mv	s0,a3
    4cdc:	c509                	beqz	a0,4ce6 <_vfiprintf_r+0x2a>
    4cde:	4d1c                	lw	a5,24(a0)
    4ce0:	e399                	bnez	a5,4ce6 <_vfiprintf_r+0x2a>
    4ce2:	b5dff0ef          	jal	ra,483e <__sinit>
    4ce6:	00001797          	auipc	a5,0x1
    4cea:	21e78793          	addi	a5,a5,542 # 5f04 <__sf_fake_stdin>
    4cee:	0cf49863          	bne	s1,a5,4dbe <_vfiprintf_r+0x102>
    4cf2:	0049a483          	lw	s1,4(s3)
    4cf6:	24de                	lhu	a5,12(s1)
    4cf8:	8ba1                	andi	a5,a5,8
    4cfa:	c7e5                	beqz	a5,4de2 <_vfiprintf_r+0x126>
    4cfc:	489c                	lw	a5,16(s1)
    4cfe:	c3f5                	beqz	a5,4de2 <_vfiprintf_r+0x126>
    4d00:	02000793          	li	a5,32
    4d04:	02f104a3          	sb	a5,41(sp)
    4d08:	03000793          	li	a5,48
    4d0c:	d202                	sw	zero,36(sp)
    4d0e:	02f10523          	sb	a5,42(sp)
    4d12:	c622                	sw	s0,12(sp)
    4d14:	02500b93          	li	s7,37
    4d18:	00001a97          	auipc	s5,0x1
    4d1c:	23ca8a93          	addi	s5,s5,572 # 5f54 <__sf_fake_stdout+0x30>
    4d20:	4c05                	li	s8,1
    4d22:	4b29                	li	s6,10
    4d24:	844a                	mv	s0,s2
    4d26:	201c                	lbu	a5,0(s0)
    4d28:	c399                	beqz	a5,4d2e <_vfiprintf_r+0x72>
    4d2a:	0d779f63          	bne	a5,s7,4e08 <_vfiprintf_r+0x14c>
    4d2e:	41240cb3          	sub	s9,s0,s2
    4d32:	000c8e63          	beqz	s9,4d4e <_vfiprintf_r+0x92>
    4d36:	86e6                	mv	a3,s9
    4d38:	864a                	mv	a2,s2
    4d3a:	85a6                	mv	a1,s1
    4d3c:	854e                	mv	a0,s3
    4d3e:	f3dff0ef          	jal	ra,4c7a <__sfputs_r>
    4d42:	57fd                	li	a5,-1
    4d44:	1cf50f63          	beq	a0,a5,4f22 <_vfiprintf_r+0x266>
    4d48:	5692                	lw	a3,36(sp)
    4d4a:	96e6                	add	a3,a3,s9
    4d4c:	d236                	sw	a3,36(sp)
    4d4e:	201c                	lbu	a5,0(s0)
    4d50:	1c078963          	beqz	a5,4f22 <_vfiprintf_r+0x266>
    4d54:	57fd                	li	a5,-1
    4d56:	00140913          	addi	s2,s0,1
    4d5a:	c802                	sw	zero,16(sp)
    4d5c:	ce02                	sw	zero,28(sp)
    4d5e:	ca3e                	sw	a5,20(sp)
    4d60:	cc02                	sw	zero,24(sp)
    4d62:	040109a3          	sb	zero,83(sp)
    4d66:	d482                	sw	zero,104(sp)
    4d68:	00094583          	lbu	a1,0(s2)
    4d6c:	4615                	li	a2,5
    4d6e:	8556                	mv	a0,s5
    4d70:	2fa5                	jal	54e8 <memchr>
    4d72:	00190413          	addi	s0,s2,1
    4d76:	47c2                	lw	a5,16(sp)
    4d78:	e951                	bnez	a0,4e0c <_vfiprintf_r+0x150>
    4d7a:	0107f713          	andi	a4,a5,16
    4d7e:	c709                	beqz	a4,4d88 <_vfiprintf_r+0xcc>
    4d80:	02000713          	li	a4,32
    4d84:	04e109a3          	sb	a4,83(sp)
    4d88:	0087f713          	andi	a4,a5,8
    4d8c:	c709                	beqz	a4,4d96 <_vfiprintf_r+0xda>
    4d8e:	02b00713          	li	a4,43
    4d92:	04e109a3          	sb	a4,83(sp)
    4d96:	00094683          	lbu	a3,0(s2)
    4d9a:	02a00713          	li	a4,42
    4d9e:	06e68f63          	beq	a3,a4,4e1c <_vfiprintf_r+0x160>
    4da2:	47f2                	lw	a5,28(sp)
    4da4:	844a                	mv	s0,s2
    4da6:	4681                	li	a3,0
    4da8:	4625                	li	a2,9
    4daa:	2018                	lbu	a4,0(s0)
    4dac:	00140593          	addi	a1,s0,1
    4db0:	fd070713          	addi	a4,a4,-48 # ffffdfd0 <_eusrstack+0xdfff8fd0>
    4db4:	0ae67763          	bgeu	a2,a4,4e62 <_vfiprintf_r+0x1a6>
    4db8:	cab5                	beqz	a3,4e2c <_vfiprintf_r+0x170>
    4dba:	ce3e                	sw	a5,28(sp)
    4dbc:	a885                	j	4e2c <_vfiprintf_r+0x170>
    4dbe:	00001797          	auipc	a5,0x1
    4dc2:	16678793          	addi	a5,a5,358 # 5f24 <__sf_fake_stdout>
    4dc6:	00f49563          	bne	s1,a5,4dd0 <_vfiprintf_r+0x114>
    4dca:	0089a483          	lw	s1,8(s3)
    4dce:	b725                	j	4cf6 <_vfiprintf_r+0x3a>
    4dd0:	00001797          	auipc	a5,0x1
    4dd4:	11478793          	addi	a5,a5,276 # 5ee4 <__sf_fake_stderr>
    4dd8:	f0f49fe3          	bne	s1,a5,4cf6 <_vfiprintf_r+0x3a>
    4ddc:	00c9a483          	lw	s1,12(s3)
    4de0:	bf19                	j	4cf6 <_vfiprintf_r+0x3a>
    4de2:	85a6                	mv	a1,s1
    4de4:	854e                	mv	a0,s3
    4de6:	f10ff0ef          	jal	ra,44f6 <__swsetup_r>
    4dea:	d919                	beqz	a0,4d00 <_vfiprintf_r+0x44>
    4dec:	557d                	li	a0,-1
    4dee:	40fa                	lw	ra,156(sp)
    4df0:	446a                	lw	s0,152(sp)
    4df2:	44da                	lw	s1,148(sp)
    4df4:	494a                	lw	s2,144(sp)
    4df6:	49ba                	lw	s3,140(sp)
    4df8:	4a2a                	lw	s4,136(sp)
    4dfa:	4a9a                	lw	s5,132(sp)
    4dfc:	4b0a                	lw	s6,128(sp)
    4dfe:	5bf6                	lw	s7,124(sp)
    4e00:	5c66                	lw	s8,120(sp)
    4e02:	5cd6                	lw	s9,116(sp)
    4e04:	610d                	addi	sp,sp,160
    4e06:	8082                	ret
    4e08:	0405                	addi	s0,s0,1
    4e0a:	bf31                	j	4d26 <_vfiprintf_r+0x6a>
    4e0c:	41550533          	sub	a0,a0,s5
    4e10:	00ac1533          	sll	a0,s8,a0
    4e14:	8fc9                	or	a5,a5,a0
    4e16:	c83e                	sw	a5,16(sp)
    4e18:	8922                	mv	s2,s0
    4e1a:	b7b9                	j	4d68 <_vfiprintf_r+0xac>
    4e1c:	4732                	lw	a4,12(sp)
    4e1e:	00470693          	addi	a3,a4,4
    4e22:	4318                	lw	a4,0(a4)
    4e24:	c636                	sw	a3,12(sp)
    4e26:	02074763          	bltz	a4,4e54 <_vfiprintf_r+0x198>
    4e2a:	ce3a                	sw	a4,28(sp)
    4e2c:	2018                	lbu	a4,0(s0)
    4e2e:	02e00793          	li	a5,46
    4e32:	04f71d63          	bne	a4,a5,4e8c <_vfiprintf_r+0x1d0>
    4e36:	3018                	lbu	a4,1(s0)
    4e38:	02a00793          	li	a5,42
    4e3c:	02f71b63          	bne	a4,a5,4e72 <_vfiprintf_r+0x1b6>
    4e40:	47b2                	lw	a5,12(sp)
    4e42:	0409                	addi	s0,s0,2
    4e44:	00478713          	addi	a4,a5,4
    4e48:	439c                	lw	a5,0(a5)
    4e4a:	c63a                	sw	a4,12(sp)
    4e4c:	0207c163          	bltz	a5,4e6e <_vfiprintf_r+0x1b2>
    4e50:	ca3e                	sw	a5,20(sp)
    4e52:	a82d                	j	4e8c <_vfiprintf_r+0x1d0>
    4e54:	40e00733          	neg	a4,a4
    4e58:	0027e793          	ori	a5,a5,2
    4e5c:	ce3a                	sw	a4,28(sp)
    4e5e:	c83e                	sw	a5,16(sp)
    4e60:	b7f1                	j	4e2c <_vfiprintf_r+0x170>
    4e62:	036787b3          	mul	a5,a5,s6
    4e66:	4685                	li	a3,1
    4e68:	842e                	mv	s0,a1
    4e6a:	97ba                	add	a5,a5,a4
    4e6c:	bf3d                	j	4daa <_vfiprintf_r+0xee>
    4e6e:	57fd                	li	a5,-1
    4e70:	b7c5                	j	4e50 <_vfiprintf_r+0x194>
    4e72:	0405                	addi	s0,s0,1
    4e74:	ca02                	sw	zero,20(sp)
    4e76:	4681                	li	a3,0
    4e78:	4781                	li	a5,0
    4e7a:	4625                	li	a2,9
    4e7c:	2018                	lbu	a4,0(s0)
    4e7e:	00140593          	addi	a1,s0,1
    4e82:	fd070713          	addi	a4,a4,-48
    4e86:	06e67463          	bgeu	a2,a4,4eee <_vfiprintf_r+0x232>
    4e8a:	f2f9                	bnez	a3,4e50 <_vfiprintf_r+0x194>
    4e8c:	200c                	lbu	a1,0(s0)
    4e8e:	460d                	li	a2,3
    4e90:	00001517          	auipc	a0,0x1
    4e94:	0cc50513          	addi	a0,a0,204 # 5f5c <__sf_fake_stdout+0x38>
    4e98:	2d81                	jal	54e8 <memchr>
    4e9a:	cd11                	beqz	a0,4eb6 <_vfiprintf_r+0x1fa>
    4e9c:	00001797          	auipc	a5,0x1
    4ea0:	0c078793          	addi	a5,a5,192 # 5f5c <__sf_fake_stdout+0x38>
    4ea4:	8d1d                	sub	a0,a0,a5
    4ea6:	04000793          	li	a5,64
    4eaa:	00a797b3          	sll	a5,a5,a0
    4eae:	4542                	lw	a0,16(sp)
    4eb0:	0405                	addi	s0,s0,1
    4eb2:	8d5d                	or	a0,a0,a5
    4eb4:	c82a                	sw	a0,16(sp)
    4eb6:	200c                	lbu	a1,0(s0)
    4eb8:	4619                	li	a2,6
    4eba:	00001517          	auipc	a0,0x1
    4ebe:	0a650513          	addi	a0,a0,166 # 5f60 <__sf_fake_stdout+0x3c>
    4ec2:	00140913          	addi	s2,s0,1
    4ec6:	02b10423          	sb	a1,40(sp)
    4eca:	2d39                	jal	54e8 <memchr>
    4ecc:	c135                	beqz	a0,4f30 <_vfiprintf_r+0x274>
    4ece:	ffffb797          	auipc	a5,0xffffb
    4ed2:	13278793          	addi	a5,a5,306 # 0 <_sinit>
    4ed6:	e795                	bnez	a5,4f02 <_vfiprintf_r+0x246>
    4ed8:	4742                	lw	a4,16(sp)
    4eda:	47b2                	lw	a5,12(sp)
    4edc:	10077713          	andi	a4,a4,256
    4ee0:	cf09                	beqz	a4,4efa <_vfiprintf_r+0x23e>
    4ee2:	0791                	addi	a5,a5,4
    4ee4:	c63e                	sw	a5,12(sp)
    4ee6:	5792                	lw	a5,36(sp)
    4ee8:	97d2                	add	a5,a5,s4
    4eea:	d23e                	sw	a5,36(sp)
    4eec:	bd25                	j	4d24 <_vfiprintf_r+0x68>
    4eee:	036787b3          	mul	a5,a5,s6
    4ef2:	4685                	li	a3,1
    4ef4:	842e                	mv	s0,a1
    4ef6:	97ba                	add	a5,a5,a4
    4ef8:	b751                	j	4e7c <_vfiprintf_r+0x1c0>
    4efa:	079d                	addi	a5,a5,7
    4efc:	9be1                	andi	a5,a5,-8
    4efe:	07a1                	addi	a5,a5,8
    4f00:	b7d5                	j	4ee4 <_vfiprintf_r+0x228>
    4f02:	0078                	addi	a4,sp,12
    4f04:	00000697          	auipc	a3,0x0
    4f08:	d7668693          	addi	a3,a3,-650 # 4c7a <__sfputs_r>
    4f0c:	8626                	mv	a2,s1
    4f0e:	080c                	addi	a1,sp,16
    4f10:	854e                	mv	a0,s3
    4f12:	00000097          	auipc	ra,0x0
    4f16:	000000e7          	jalr	zero # 0 <_sinit>
    4f1a:	57fd                	li	a5,-1
    4f1c:	8a2a                	mv	s4,a0
    4f1e:	fcf514e3          	bne	a0,a5,4ee6 <_vfiprintf_r+0x22a>
    4f22:	24de                	lhu	a5,12(s1)
    4f24:	0407f793          	andi	a5,a5,64
    4f28:	ec0792e3          	bnez	a5,4dec <_vfiprintf_r+0x130>
    4f2c:	5512                	lw	a0,36(sp)
    4f2e:	b5c1                	j	4dee <_vfiprintf_r+0x132>
    4f30:	0078                	addi	a4,sp,12
    4f32:	00000697          	auipc	a3,0x0
    4f36:	d4868693          	addi	a3,a3,-696 # 4c7a <__sfputs_r>
    4f3a:	8626                	mv	a2,s1
    4f3c:	080c                	addi	a1,sp,16
    4f3e:	854e                	mv	a0,s3
    4f40:	2a01                	jal	5050 <_printf_i>
    4f42:	bfe1                	j	4f1a <_vfiprintf_r+0x25e>

00004f44 <_printf_common>:
    4f44:	7179                	addi	sp,sp,-48
    4f46:	ca56                	sw	s5,20(sp)
    4f48:	499c                	lw	a5,16(a1)
    4f4a:	8aba                	mv	s5,a4
    4f4c:	4598                	lw	a4,8(a1)
    4f4e:	d422                	sw	s0,40(sp)
    4f50:	d226                	sw	s1,36(sp)
    4f52:	ce4e                	sw	s3,28(sp)
    4f54:	cc52                	sw	s4,24(sp)
    4f56:	d606                	sw	ra,44(sp)
    4f58:	d04a                	sw	s2,32(sp)
    4f5a:	c85a                	sw	s6,16(sp)
    4f5c:	c65e                	sw	s7,12(sp)
    4f5e:	89aa                	mv	s3,a0
    4f60:	842e                	mv	s0,a1
    4f62:	84b2                	mv	s1,a2
    4f64:	8a36                	mv	s4,a3
    4f66:	00e7d363          	bge	a5,a4,4f6c <_printf_common+0x28>
    4f6a:	87ba                	mv	a5,a4
    4f6c:	c09c                	sw	a5,0(s1)
    4f6e:	04344703          	lbu	a4,67(s0)
    4f72:	c319                	beqz	a4,4f78 <_printf_common+0x34>
    4f74:	0785                	addi	a5,a5,1
    4f76:	c09c                	sw	a5,0(s1)
    4f78:	401c                	lw	a5,0(s0)
    4f7a:	0207f793          	andi	a5,a5,32
    4f7e:	c781                	beqz	a5,4f86 <_printf_common+0x42>
    4f80:	409c                	lw	a5,0(s1)
    4f82:	0789                	addi	a5,a5,2
    4f84:	c09c                	sw	a5,0(s1)
    4f86:	00042903          	lw	s2,0(s0)
    4f8a:	00697913          	andi	s2,s2,6
    4f8e:	00091a63          	bnez	s2,4fa2 <_printf_common+0x5e>
    4f92:	01940b13          	addi	s6,s0,25
    4f96:	5bfd                	li	s7,-1
    4f98:	445c                	lw	a5,12(s0)
    4f9a:	4098                	lw	a4,0(s1)
    4f9c:	8f99                	sub	a5,a5,a4
    4f9e:	04f94c63          	blt	s2,a5,4ff6 <_printf_common+0xb2>
    4fa2:	401c                	lw	a5,0(s0)
    4fa4:	04344683          	lbu	a3,67(s0)
    4fa8:	0207f793          	andi	a5,a5,32
    4fac:	00d036b3          	snez	a3,a3
    4fb0:	eba5                	bnez	a5,5020 <_printf_common+0xdc>
    4fb2:	04340613          	addi	a2,s0,67
    4fb6:	85d2                	mv	a1,s4
    4fb8:	854e                	mv	a0,s3
    4fba:	9a82                	jalr	s5
    4fbc:	57fd                	li	a5,-1
    4fbe:	04f50363          	beq	a0,a5,5004 <_printf_common+0xc0>
    4fc2:	401c                	lw	a5,0(s0)
    4fc4:	4611                	li	a2,4
    4fc6:	4098                	lw	a4,0(s1)
    4fc8:	8b99                	andi	a5,a5,6
    4fca:	4454                	lw	a3,12(s0)
    4fcc:	4481                	li	s1,0
    4fce:	00c79763          	bne	a5,a2,4fdc <_printf_common+0x98>
    4fd2:	40e684b3          	sub	s1,a3,a4
    4fd6:	0004d363          	bgez	s1,4fdc <_printf_common+0x98>
    4fda:	4481                	li	s1,0
    4fdc:	441c                	lw	a5,8(s0)
    4fde:	4818                	lw	a4,16(s0)
    4fe0:	00f75463          	bge	a4,a5,4fe8 <_printf_common+0xa4>
    4fe4:	8f99                	sub	a5,a5,a4
    4fe6:	94be                	add	s1,s1,a5
    4fe8:	4901                	li	s2,0
    4fea:	0469                	addi	s0,s0,26
    4fec:	5b7d                	li	s6,-1
    4fee:	05249863          	bne	s1,s2,503e <_printf_common+0xfa>
    4ff2:	4501                	li	a0,0
    4ff4:	a809                	j	5006 <_printf_common+0xc2>
    4ff6:	4685                	li	a3,1
    4ff8:	865a                	mv	a2,s6
    4ffa:	85d2                	mv	a1,s4
    4ffc:	854e                	mv	a0,s3
    4ffe:	9a82                	jalr	s5
    5000:	01751e63          	bne	a0,s7,501c <_printf_common+0xd8>
    5004:	557d                	li	a0,-1
    5006:	50b2                	lw	ra,44(sp)
    5008:	5422                	lw	s0,40(sp)
    500a:	5492                	lw	s1,36(sp)
    500c:	5902                	lw	s2,32(sp)
    500e:	49f2                	lw	s3,28(sp)
    5010:	4a62                	lw	s4,24(sp)
    5012:	4ad2                	lw	s5,20(sp)
    5014:	4b42                	lw	s6,16(sp)
    5016:	4bb2                	lw	s7,12(sp)
    5018:	6145                	addi	sp,sp,48
    501a:	8082                	ret
    501c:	0905                	addi	s2,s2,1
    501e:	bfad                	j	4f98 <_printf_common+0x54>
    5020:	00d40733          	add	a4,s0,a3
    5024:	03000613          	li	a2,48
    5028:	04c701a3          	sb	a2,67(a4)
    502c:	04544703          	lbu	a4,69(s0)
    5030:	00168793          	addi	a5,a3,1
    5034:	97a2                	add	a5,a5,s0
    5036:	0689                	addi	a3,a3,2
    5038:	04e781a3          	sb	a4,67(a5)
    503c:	bf9d                	j	4fb2 <_printf_common+0x6e>
    503e:	4685                	li	a3,1
    5040:	8622                	mv	a2,s0
    5042:	85d2                	mv	a1,s4
    5044:	854e                	mv	a0,s3
    5046:	9a82                	jalr	s5
    5048:	fb650ee3          	beq	a0,s6,5004 <_printf_common+0xc0>
    504c:	0905                	addi	s2,s2,1
    504e:	b745                	j	4fee <_printf_common+0xaa>

00005050 <_printf_i>:
    5050:	7179                	addi	sp,sp,-48
    5052:	d422                	sw	s0,40(sp)
    5054:	d226                	sw	s1,36(sp)
    5056:	d04a                	sw	s2,32(sp)
    5058:	ce4e                	sw	s3,28(sp)
    505a:	d606                	sw	ra,44(sp)
    505c:	cc52                	sw	s4,24(sp)
    505e:	ca56                	sw	s5,20(sp)
    5060:	c85a                	sw	s6,16(sp)
    5062:	89b6                	mv	s3,a3
    5064:	2d94                	lbu	a3,24(a1)
    5066:	06900793          	li	a5,105
    506a:	8932                	mv	s2,a2
    506c:	84aa                	mv	s1,a0
    506e:	842e                	mv	s0,a1
    5070:	04358613          	addi	a2,a1,67
    5074:	02f68d63          	beq	a3,a5,50ae <_printf_i+0x5e>
    5078:	06d7e263          	bltu	a5,a3,50dc <_printf_i+0x8c>
    507c:	05800793          	li	a5,88
    5080:	18f68663          	beq	a3,a5,520c <_printf_i+0x1bc>
    5084:	00d7ed63          	bltu	a5,a3,509e <_printf_i+0x4e>
    5088:	20068e63          	beqz	a3,52a4 <_printf_i+0x254>
    508c:	04300793          	li	a5,67
    5090:	0af68e63          	beq	a3,a5,514c <_printf_i+0xfc>
    5094:	04240a93          	addi	s5,s0,66
    5098:	04d40123          	sb	a3,66(s0)
    509c:	a0c9                	j	515e <_printf_i+0x10e>
    509e:	06300793          	li	a5,99
    50a2:	0af68563          	beq	a3,a5,514c <_printf_i+0xfc>
    50a6:	06400793          	li	a5,100
    50aa:	fef695e3          	bne	a3,a5,5094 <_printf_i+0x44>
    50ae:	401c                	lw	a5,0(s0)
    50b0:	4308                	lw	a0,0(a4)
    50b2:	0807f693          	andi	a3,a5,128
    50b6:	00450593          	addi	a1,a0,4
    50ba:	c6c5                	beqz	a3,5162 <_printf_i+0x112>
    50bc:	411c                	lw	a5,0(a0)
    50be:	c30c                	sw	a1,0(a4)
    50c0:	0007d863          	bgez	a5,50d0 <_printf_i+0x80>
    50c4:	02d00713          	li	a4,45
    50c8:	40f007b3          	neg	a5,a5
    50cc:	04e401a3          	sb	a4,67(s0)
    50d0:	00001697          	auipc	a3,0x1
    50d4:	e9868693          	addi	a3,a3,-360 # 5f68 <__sf_fake_stdout+0x44>
    50d8:	4729                	li	a4,10
    50da:	a865                	j	5192 <_printf_i+0x142>
    50dc:	07000793          	li	a5,112
    50e0:	16f68263          	beq	a3,a5,5244 <_printf_i+0x1f4>
    50e4:	02d7e563          	bltu	a5,a3,510e <_printf_i+0xbe>
    50e8:	06e00793          	li	a5,110
    50ec:	18f68963          	beq	a3,a5,527e <_printf_i+0x22e>
    50f0:	06f00793          	li	a5,111
    50f4:	faf690e3          	bne	a3,a5,5094 <_printf_i+0x44>
    50f8:	400c                	lw	a1,0(s0)
    50fa:	431c                	lw	a5,0(a4)
    50fc:	0805f813          	andi	a6,a1,128
    5100:	00478513          	addi	a0,a5,4
    5104:	06080763          	beqz	a6,5172 <_printf_i+0x122>
    5108:	c308                	sw	a0,0(a4)
    510a:	439c                	lw	a5,0(a5)
    510c:	a885                	j	517c <_printf_i+0x12c>
    510e:	07500793          	li	a5,117
    5112:	fef683e3          	beq	a3,a5,50f8 <_printf_i+0xa8>
    5116:	07800793          	li	a5,120
    511a:	12f68963          	beq	a3,a5,524c <_printf_i+0x1fc>
    511e:	07300793          	li	a5,115
    5122:	f6f699e3          	bne	a3,a5,5094 <_printf_i+0x44>
    5126:	431c                	lw	a5,0(a4)
    5128:	41d0                	lw	a2,4(a1)
    512a:	4581                	li	a1,0
    512c:	00478693          	addi	a3,a5,4
    5130:	c314                	sw	a3,0(a4)
    5132:	0007aa83          	lw	s5,0(a5)
    5136:	8556                	mv	a0,s5
    5138:	2e45                	jal	54e8 <memchr>
    513a:	c501                	beqz	a0,5142 <_printf_i+0xf2>
    513c:	41550533          	sub	a0,a0,s5
    5140:	c048                	sw	a0,4(s0)
    5142:	405c                	lw	a5,4(s0)
    5144:	c81c                	sw	a5,16(s0)
    5146:	040401a3          	sb	zero,67(s0)
    514a:	a861                	j	51e2 <_printf_i+0x192>
    514c:	431c                	lw	a5,0(a4)
    514e:	04240a93          	addi	s5,s0,66
    5152:	00478693          	addi	a3,a5,4
    5156:	439c                	lw	a5,0(a5)
    5158:	c314                	sw	a3,0(a4)
    515a:	04f40123          	sb	a5,66(s0)
    515e:	4785                	li	a5,1
    5160:	b7d5                	j	5144 <_printf_i+0xf4>
    5162:	0407f693          	andi	a3,a5,64
    5166:	411c                	lw	a5,0(a0)
    5168:	c30c                	sw	a1,0(a4)
    516a:	dab9                	beqz	a3,50c0 <_printf_i+0x70>
    516c:	07c2                	slli	a5,a5,0x10
    516e:	87c1                	srai	a5,a5,0x10
    5170:	bf81                	j	50c0 <_printf_i+0x70>
    5172:	0405f593          	andi	a1,a1,64
    5176:	c308                	sw	a0,0(a4)
    5178:	d9c9                	beqz	a1,510a <_printf_i+0xba>
    517a:	239e                	lhu	a5,0(a5)
    517c:	06f00713          	li	a4,111
    5180:	0ee68763          	beq	a3,a4,526e <_printf_i+0x21e>
    5184:	00001697          	auipc	a3,0x1
    5188:	de468693          	addi	a3,a3,-540 # 5f68 <__sf_fake_stdout+0x44>
    518c:	4729                	li	a4,10
    518e:	040401a3          	sb	zero,67(s0)
    5192:	404c                	lw	a1,4(s0)
    5194:	c40c                	sw	a1,8(s0)
    5196:	0005c563          	bltz	a1,51a0 <_printf_i+0x150>
    519a:	4008                	lw	a0,0(s0)
    519c:	996d                	andi	a0,a0,-5
    519e:	c008                	sw	a0,0(s0)
    51a0:	e399                	bnez	a5,51a6 <_printf_i+0x156>
    51a2:	8ab2                	mv	s5,a2
    51a4:	cd89                	beqz	a1,51be <_printf_i+0x16e>
    51a6:	8ab2                	mv	s5,a2
    51a8:	02e7f5b3          	remu	a1,a5,a4
    51ac:	1afd                	addi	s5,s5,-1
    51ae:	95b6                	add	a1,a1,a3
    51b0:	218c                	lbu	a1,0(a1)
    51b2:	00ba8023          	sb	a1,0(s5)
    51b6:	02e7d5b3          	divu	a1,a5,a4
    51ba:	0ce7f063          	bgeu	a5,a4,527a <_printf_i+0x22a>
    51be:	47a1                	li	a5,8
    51c0:	00f71e63          	bne	a4,a5,51dc <_printf_i+0x18c>
    51c4:	401c                	lw	a5,0(s0)
    51c6:	8b85                	andi	a5,a5,1
    51c8:	cb91                	beqz	a5,51dc <_printf_i+0x18c>
    51ca:	4058                	lw	a4,4(s0)
    51cc:	481c                	lw	a5,16(s0)
    51ce:	00e7c763          	blt	a5,a4,51dc <_printf_i+0x18c>
    51d2:	03000793          	li	a5,48
    51d6:	fefa8fa3          	sb	a5,-1(s5)
    51da:	1afd                	addi	s5,s5,-1
    51dc:	41560633          	sub	a2,a2,s5
    51e0:	c810                	sw	a2,16(s0)
    51e2:	874e                	mv	a4,s3
    51e4:	86ca                	mv	a3,s2
    51e6:	0070                	addi	a2,sp,12
    51e8:	85a2                	mv	a1,s0
    51ea:	8526                	mv	a0,s1
    51ec:	d59ff0ef          	jal	ra,4f44 <_printf_common>
    51f0:	5a7d                	li	s4,-1
    51f2:	0b451d63          	bne	a0,s4,52ac <_printf_i+0x25c>
    51f6:	557d                	li	a0,-1
    51f8:	50b2                	lw	ra,44(sp)
    51fa:	5422                	lw	s0,40(sp)
    51fc:	5492                	lw	s1,36(sp)
    51fe:	5902                	lw	s2,32(sp)
    5200:	49f2                	lw	s3,28(sp)
    5202:	4a62                	lw	s4,24(sp)
    5204:	4ad2                	lw	s5,20(sp)
    5206:	4b42                	lw	s6,16(sp)
    5208:	6145                	addi	sp,sp,48
    520a:	8082                	ret
    520c:	04d582a3          	sb	a3,69(a1)
    5210:	00001697          	auipc	a3,0x1
    5214:	d5868693          	addi	a3,a3,-680 # 5f68 <__sf_fake_stdout+0x44>
    5218:	400c                	lw	a1,0(s0)
    521a:	4308                	lw	a0,0(a4)
    521c:	0805f813          	andi	a6,a1,128
    5220:	411c                	lw	a5,0(a0)
    5222:	0511                	addi	a0,a0,4
    5224:	02080d63          	beqz	a6,525e <_printf_i+0x20e>
    5228:	c308                	sw	a0,0(a4)
    522a:	0015f713          	andi	a4,a1,1
    522e:	c701                	beqz	a4,5236 <_printf_i+0x1e6>
    5230:	0205e593          	ori	a1,a1,32
    5234:	c00c                	sw	a1,0(s0)
    5236:	4741                	li	a4,16
    5238:	fbb9                	bnez	a5,518e <_printf_i+0x13e>
    523a:	400c                	lw	a1,0(s0)
    523c:	fdf5f593          	andi	a1,a1,-33
    5240:	c00c                	sw	a1,0(s0)
    5242:	b7b1                	j	518e <_printf_i+0x13e>
    5244:	419c                	lw	a5,0(a1)
    5246:	0207e793          	ori	a5,a5,32
    524a:	c19c                	sw	a5,0(a1)
    524c:	07800793          	li	a5,120
    5250:	04f402a3          	sb	a5,69(s0)
    5254:	00001697          	auipc	a3,0x1
    5258:	d2868693          	addi	a3,a3,-728 # 5f7c <__sf_fake_stdout+0x58>
    525c:	bf75                	j	5218 <_printf_i+0x1c8>
    525e:	0405f813          	andi	a6,a1,64
    5262:	c308                	sw	a0,0(a4)
    5264:	fc0803e3          	beqz	a6,522a <_printf_i+0x1da>
    5268:	07c2                	slli	a5,a5,0x10
    526a:	83c1                	srli	a5,a5,0x10
    526c:	bf7d                	j	522a <_printf_i+0x1da>
    526e:	00001697          	auipc	a3,0x1
    5272:	cfa68693          	addi	a3,a3,-774 # 5f68 <__sf_fake_stdout+0x44>
    5276:	4721                	li	a4,8
    5278:	bf19                	j	518e <_printf_i+0x13e>
    527a:	87ae                	mv	a5,a1
    527c:	b735                	j	51a8 <_printf_i+0x158>
    527e:	4194                	lw	a3,0(a1)
    5280:	431c                	lw	a5,0(a4)
    5282:	49cc                	lw	a1,20(a1)
    5284:	0806f813          	andi	a6,a3,128
    5288:	00478513          	addi	a0,a5,4
    528c:	00080663          	beqz	a6,5298 <_printf_i+0x248>
    5290:	c308                	sw	a0,0(a4)
    5292:	439c                	lw	a5,0(a5)
    5294:	c38c                	sw	a1,0(a5)
    5296:	a039                	j	52a4 <_printf_i+0x254>
    5298:	c308                	sw	a0,0(a4)
    529a:	0406f693          	andi	a3,a3,64
    529e:	439c                	lw	a5,0(a5)
    52a0:	daf5                	beqz	a3,5294 <_printf_i+0x244>
    52a2:	a38e                	sh	a1,0(a5)
    52a4:	00042823          	sw	zero,16(s0)
    52a8:	8ab2                	mv	s5,a2
    52aa:	bf25                	j	51e2 <_printf_i+0x192>
    52ac:	4814                	lw	a3,16(s0)
    52ae:	8656                	mv	a2,s5
    52b0:	85ca                	mv	a1,s2
    52b2:	8526                	mv	a0,s1
    52b4:	9982                	jalr	s3
    52b6:	f54500e3          	beq	a0,s4,51f6 <_printf_i+0x1a6>
    52ba:	401c                	lw	a5,0(s0)
    52bc:	8b89                	andi	a5,a5,2
    52be:	e78d                	bnez	a5,52e8 <_printf_i+0x298>
    52c0:	47b2                	lw	a5,12(sp)
    52c2:	4448                	lw	a0,12(s0)
    52c4:	f2f55ae3          	bge	a0,a5,51f8 <_printf_i+0x1a8>
    52c8:	853e                	mv	a0,a5
    52ca:	b73d                	j	51f8 <_printf_i+0x1a8>
    52cc:	4685                	li	a3,1
    52ce:	8656                	mv	a2,s5
    52d0:	85ca                	mv	a1,s2
    52d2:	8526                	mv	a0,s1
    52d4:	9982                	jalr	s3
    52d6:	f36500e3          	beq	a0,s6,51f6 <_printf_i+0x1a6>
    52da:	0a05                	addi	s4,s4,1
    52dc:	445c                	lw	a5,12(s0)
    52de:	4732                	lw	a4,12(sp)
    52e0:	8f99                	sub	a5,a5,a4
    52e2:	fefa45e3          	blt	s4,a5,52cc <_printf_i+0x27c>
    52e6:	bfe9                	j	52c0 <_printf_i+0x270>
    52e8:	4a01                	li	s4,0
    52ea:	01940a93          	addi	s5,s0,25
    52ee:	5b7d                	li	s6,-1
    52f0:	b7f5                	j	52dc <_printf_i+0x28c>

000052f2 <_sbrk_r>:
    52f2:	1141                	addi	sp,sp,-16
    52f4:	c422                	sw	s0,8(sp)
    52f6:	842a                	mv	s0,a0
    52f8:	852e                	mv	a0,a1
    52fa:	1fffc797          	auipc	a5,0x1fffc
    52fe:	f207a923          	sw	zero,-206(a5) # 2000122c <errno>
    5302:	c606                	sw	ra,12(sp)
    5304:	dcdfe0ef          	jal	ra,40d0 <_sbrk>
    5308:	57fd                	li	a5,-1
    530a:	00f51963          	bne	a0,a5,531c <_sbrk_r+0x2a>
    530e:	1fffc797          	auipc	a5,0x1fffc
    5312:	f1e78793          	addi	a5,a5,-226 # 2000122c <errno>
    5316:	439c                	lw	a5,0(a5)
    5318:	c391                	beqz	a5,531c <_sbrk_r+0x2a>
    531a:	c01c                	sw	a5,0(s0)
    531c:	40b2                	lw	ra,12(sp)
    531e:	4422                	lw	s0,8(sp)
    5320:	0141                	addi	sp,sp,16
    5322:	8082                	ret

00005324 <__sread>:
    5324:	1141                	addi	sp,sp,-16
    5326:	c422                	sw	s0,8(sp)
    5328:	842e                	mv	s0,a1
    532a:	00e59583          	lh	a1,14(a1)
    532e:	c606                	sw	ra,12(sp)
    5330:	2ad1                	jal	5504 <_read_r>
    5332:	00054963          	bltz	a0,5344 <__sread+0x20>
    5336:	487c                	lw	a5,84(s0)
    5338:	97aa                	add	a5,a5,a0
    533a:	c87c                	sw	a5,84(s0)
    533c:	40b2                	lw	ra,12(sp)
    533e:	4422                	lw	s0,8(sp)
    5340:	0141                	addi	sp,sp,16
    5342:	8082                	ret
    5344:	245e                	lhu	a5,12(s0)
    5346:	777d                	lui	a4,0xfffff
    5348:	177d                	addi	a4,a4,-1
    534a:	8ff9                	and	a5,a5,a4
    534c:	a45e                	sh	a5,12(s0)
    534e:	b7fd                	j	533c <__sread+0x18>

00005350 <__swrite>:
    5350:	25de                	lhu	a5,12(a1)
    5352:	1101                	addi	sp,sp,-32
    5354:	cc22                	sw	s0,24(sp)
    5356:	ca26                	sw	s1,20(sp)
    5358:	c84a                	sw	s2,16(sp)
    535a:	c64e                	sw	s3,12(sp)
    535c:	ce06                	sw	ra,28(sp)
    535e:	1007f793          	andi	a5,a5,256
    5362:	84aa                	mv	s1,a0
    5364:	842e                	mv	s0,a1
    5366:	8932                	mv	s2,a2
    5368:	89b6                	mv	s3,a3
    536a:	c791                	beqz	a5,5376 <__swrite+0x26>
    536c:	00e59583          	lh	a1,14(a1)
    5370:	4689                	li	a3,2
    5372:	4601                	li	a2,0
    5374:	2281                	jal	54b4 <_lseek_r>
    5376:	245e                	lhu	a5,12(s0)
    5378:	777d                	lui	a4,0xfffff
    537a:	177d                	addi	a4,a4,-1
    537c:	8ff9                	and	a5,a5,a4
    537e:	a45e                	sh	a5,12(s0)
    5380:	00e41583          	lh	a1,14(s0)
    5384:	4462                	lw	s0,24(sp)
    5386:	40f2                	lw	ra,28(sp)
    5388:	86ce                	mv	a3,s3
    538a:	864a                	mv	a2,s2
    538c:	49b2                	lw	s3,12(sp)
    538e:	4942                	lw	s2,16(sp)
    5390:	8526                	mv	a0,s1
    5392:	44d2                	lw	s1,20(sp)
    5394:	6105                	addi	sp,sp,32
    5396:	a899                	j	53ec <_write_r>

00005398 <__sseek>:
    5398:	1141                	addi	sp,sp,-16
    539a:	c422                	sw	s0,8(sp)
    539c:	842e                	mv	s0,a1
    539e:	00e59583          	lh	a1,14(a1)
    53a2:	c606                	sw	ra,12(sp)
    53a4:	2a01                	jal	54b4 <_lseek_r>
    53a6:	57fd                	li	a5,-1
    53a8:	245a                	lhu	a4,12(s0)
    53aa:	00f51a63          	bne	a0,a5,53be <__sseek+0x26>
    53ae:	77fd                	lui	a5,0xfffff
    53b0:	17fd                	addi	a5,a5,-1
    53b2:	8ff9                	and	a5,a5,a4
    53b4:	a45e                	sh	a5,12(s0)
    53b6:	40b2                	lw	ra,12(sp)
    53b8:	4422                	lw	s0,8(sp)
    53ba:	0141                	addi	sp,sp,16
    53bc:	8082                	ret
    53be:	6785                	lui	a5,0x1
    53c0:	8fd9                	or	a5,a5,a4
    53c2:	a45e                	sh	a5,12(s0)
    53c4:	c868                	sw	a0,84(s0)
    53c6:	bfc5                	j	53b6 <__sseek+0x1e>

000053c8 <__sclose>:
    53c8:	00e59583          	lh	a1,14(a1)
    53cc:	a899                	j	5422 <_close_r>

000053ce <__ascii_wctomb>:
    53ce:	cd89                	beqz	a1,53e8 <__ascii_wctomb+0x1a>
    53d0:	0ff00793          	li	a5,255
    53d4:	00c7f763          	bgeu	a5,a2,53e2 <__ascii_wctomb+0x14>
    53d8:	08a00793          	li	a5,138
    53dc:	c11c                	sw	a5,0(a0)
    53de:	557d                	li	a0,-1
    53e0:	8082                	ret
    53e2:	a190                	sb	a2,0(a1)
    53e4:	4505                	li	a0,1
    53e6:	8082                	ret
    53e8:	4501                	li	a0,0
    53ea:	8082                	ret

000053ec <_write_r>:
    53ec:	1141                	addi	sp,sp,-16
    53ee:	c422                	sw	s0,8(sp)
    53f0:	842a                	mv	s0,a0
    53f2:	852e                	mv	a0,a1
    53f4:	85b2                	mv	a1,a2
    53f6:	8636                	mv	a2,a3
    53f8:	1fffc797          	auipc	a5,0x1fffc
    53fc:	e207aa23          	sw	zero,-460(a5) # 2000122c <errno>
    5400:	c606                	sw	ra,12(sp)
    5402:	c91fe0ef          	jal	ra,4092 <_write>
    5406:	57fd                	li	a5,-1
    5408:	00f51963          	bne	a0,a5,541a <_write_r+0x2e>
    540c:	1fffc797          	auipc	a5,0x1fffc
    5410:	e2078793          	addi	a5,a5,-480 # 2000122c <errno>
    5414:	439c                	lw	a5,0(a5)
    5416:	c391                	beqz	a5,541a <_write_r+0x2e>
    5418:	c01c                	sw	a5,0(s0)
    541a:	40b2                	lw	ra,12(sp)
    541c:	4422                	lw	s0,8(sp)
    541e:	0141                	addi	sp,sp,16
    5420:	8082                	ret

00005422 <_close_r>:
    5422:	1141                	addi	sp,sp,-16
    5424:	c422                	sw	s0,8(sp)
    5426:	842a                	mv	s0,a0
    5428:	852e                	mv	a0,a1
    542a:	1fffc797          	auipc	a5,0x1fffc
    542e:	e007a123          	sw	zero,-510(a5) # 2000122c <errno>
    5432:	c606                	sw	ra,12(sp)
    5434:	2211                	jal	5538 <_close>
    5436:	57fd                	li	a5,-1
    5438:	00f51963          	bne	a0,a5,544a <_close_r+0x28>
    543c:	1fffc797          	auipc	a5,0x1fffc
    5440:	df078793          	addi	a5,a5,-528 # 2000122c <errno>
    5444:	439c                	lw	a5,0(a5)
    5446:	c391                	beqz	a5,544a <_close_r+0x28>
    5448:	c01c                	sw	a5,0(s0)
    544a:	40b2                	lw	ra,12(sp)
    544c:	4422                	lw	s0,8(sp)
    544e:	0141                	addi	sp,sp,16
    5450:	8082                	ret

00005452 <_fstat_r>:
    5452:	1141                	addi	sp,sp,-16
    5454:	c422                	sw	s0,8(sp)
    5456:	842a                	mv	s0,a0
    5458:	852e                	mv	a0,a1
    545a:	85b2                	mv	a1,a2
    545c:	1fffc797          	auipc	a5,0x1fffc
    5460:	dc07a823          	sw	zero,-560(a5) # 2000122c <errno>
    5464:	c606                	sw	ra,12(sp)
    5466:	20cd                	jal	5548 <_fstat>
    5468:	57fd                	li	a5,-1
    546a:	00f51963          	bne	a0,a5,547c <_fstat_r+0x2a>
    546e:	1fffc797          	auipc	a5,0x1fffc
    5472:	dbe78793          	addi	a5,a5,-578 # 2000122c <errno>
    5476:	439c                	lw	a5,0(a5)
    5478:	c391                	beqz	a5,547c <_fstat_r+0x2a>
    547a:	c01c                	sw	a5,0(s0)
    547c:	40b2                	lw	ra,12(sp)
    547e:	4422                	lw	s0,8(sp)
    5480:	0141                	addi	sp,sp,16
    5482:	8082                	ret

00005484 <_isatty_r>:
    5484:	1141                	addi	sp,sp,-16
    5486:	c422                	sw	s0,8(sp)
    5488:	842a                	mv	s0,a0
    548a:	852e                	mv	a0,a1
    548c:	1fffc797          	auipc	a5,0x1fffc
    5490:	da07a023          	sw	zero,-608(a5) # 2000122c <errno>
    5494:	c606                	sw	ra,12(sp)
    5496:	20c9                	jal	5558 <_isatty>
    5498:	57fd                	li	a5,-1
    549a:	00f51963          	bne	a0,a5,54ac <_isatty_r+0x28>
    549e:	1fffc797          	auipc	a5,0x1fffc
    54a2:	d8e78793          	addi	a5,a5,-626 # 2000122c <errno>
    54a6:	439c                	lw	a5,0(a5)
    54a8:	c391                	beqz	a5,54ac <_isatty_r+0x28>
    54aa:	c01c                	sw	a5,0(s0)
    54ac:	40b2                	lw	ra,12(sp)
    54ae:	4422                	lw	s0,8(sp)
    54b0:	0141                	addi	sp,sp,16
    54b2:	8082                	ret

000054b4 <_lseek_r>:
    54b4:	1141                	addi	sp,sp,-16
    54b6:	c422                	sw	s0,8(sp)
    54b8:	842a                	mv	s0,a0
    54ba:	852e                	mv	a0,a1
    54bc:	85b2                	mv	a1,a2
    54be:	8636                	mv	a2,a3
    54c0:	1fffc797          	auipc	a5,0x1fffc
    54c4:	d607a623          	sw	zero,-660(a5) # 2000122c <errno>
    54c8:	c606                	sw	ra,12(sp)
    54ca:	2879                	jal	5568 <_lseek>
    54cc:	57fd                	li	a5,-1
    54ce:	00f51963          	bne	a0,a5,54e0 <_lseek_r+0x2c>
    54d2:	1fffc797          	auipc	a5,0x1fffc
    54d6:	d5a78793          	addi	a5,a5,-678 # 2000122c <errno>
    54da:	439c                	lw	a5,0(a5)
    54dc:	c391                	beqz	a5,54e0 <_lseek_r+0x2c>
    54de:	c01c                	sw	a5,0(s0)
    54e0:	40b2                	lw	ra,12(sp)
    54e2:	4422                	lw	s0,8(sp)
    54e4:	0141                	addi	sp,sp,16
    54e6:	8082                	ret

000054e8 <memchr>:
    54e8:	0ff5f593          	andi	a1,a1,255
    54ec:	962a                	add	a2,a2,a0
    54ee:	00c51463          	bne	a0,a2,54f6 <memchr+0xe>
    54f2:	4501                	li	a0,0
    54f4:	8082                	ret
    54f6:	211c                	lbu	a5,0(a0)
    54f8:	feb78ee3          	beq	a5,a1,54f4 <memchr+0xc>
    54fc:	0505                	addi	a0,a0,1
    54fe:	bfc5                	j	54ee <memchr+0x6>

00005500 <__malloc_lock>:
    5500:	8082                	ret

00005502 <__malloc_unlock>:
    5502:	8082                	ret

00005504 <_read_r>:
    5504:	1141                	addi	sp,sp,-16
    5506:	c422                	sw	s0,8(sp)
    5508:	842a                	mv	s0,a0
    550a:	852e                	mv	a0,a1
    550c:	85b2                	mv	a1,a2
    550e:	8636                	mv	a2,a3
    5510:	1fffc797          	auipc	a5,0x1fffc
    5514:	d007ae23          	sw	zero,-740(a5) # 2000122c <errno>
    5518:	c606                	sw	ra,12(sp)
    551a:	28b9                	jal	5578 <_read>
    551c:	57fd                	li	a5,-1
    551e:	00f51963          	bne	a0,a5,5530 <_read_r+0x2c>
    5522:	1fffc797          	auipc	a5,0x1fffc
    5526:	d0a78793          	addi	a5,a5,-758 # 2000122c <errno>
    552a:	439c                	lw	a5,0(a5)
    552c:	c391                	beqz	a5,5530 <_read_r+0x2c>
    552e:	c01c                	sw	a5,0(s0)
    5530:	40b2                	lw	ra,12(sp)
    5532:	4422                	lw	s0,8(sp)
    5534:	0141                	addi	sp,sp,16
    5536:	8082                	ret

00005538 <_close>:
    5538:	05800793          	li	a5,88
    553c:	1fffc717          	auipc	a4,0x1fffc
    5540:	cef72823          	sw	a5,-784(a4) # 2000122c <errno>
    5544:	557d                	li	a0,-1
    5546:	8082                	ret

00005548 <_fstat>:
    5548:	05800793          	li	a5,88
    554c:	1fffc717          	auipc	a4,0x1fffc
    5550:	cef72023          	sw	a5,-800(a4) # 2000122c <errno>
    5554:	557d                	li	a0,-1
    5556:	8082                	ret

00005558 <_isatty>:
    5558:	05800793          	li	a5,88
    555c:	1fffc717          	auipc	a4,0x1fffc
    5560:	ccf72823          	sw	a5,-816(a4) # 2000122c <errno>
    5564:	4501                	li	a0,0
    5566:	8082                	ret

00005568 <_lseek>:
    5568:	05800793          	li	a5,88
    556c:	1fffc717          	auipc	a4,0x1fffc
    5570:	ccf72023          	sw	a5,-832(a4) # 2000122c <errno>
    5574:	557d                	li	a0,-1
    5576:	8082                	ret

00005578 <_read>:
    5578:	05800793          	li	a5,88
    557c:	1fffc717          	auipc	a4,0x1fffc
    5580:	caf72823          	sw	a5,-848(a4) # 2000122c <errno>
    5584:	557d                	li	a0,-1
    5586:	8082                	ret
    5588:	0bee                	slli	s7,s7,0x1b
    558a:	0000                	unimp
    558c:	0c36                	slli	s8,s8,0xd
    558e:	0000                	unimp
    5590:	0c4c                	addi	a1,sp,532
    5592:	0000                	unimp
    5594:	0c02                	c.slli64	s8
    5596:	0000                	unimp
    5598:	0c02                	c.slli64	s8
    559a:	0000                	unimp
    559c:	0c02                	c.slli64	s8
    559e:	0000                	unimp
    55a0:	0c78                	addi	a4,sp,540
    55a2:	0000                	unimp
    55a4:	0c02                	c.slli64	s8
    55a6:	0000                	unimp
    55a8:	0c02                	c.slli64	s8
    55aa:	0000                	unimp
    55ac:	0c78                	addi	a4,sp,540
    55ae:	0000                	unimp
    55b0:	0c72                	slli	s8,s8,0x1c
    55b2:	0000                	unimp
    55b4:	0cce                	slli	s9,s9,0x13
    55b6:	0000                	unimp
    55b8:	0d14                	addi	a3,sp,656
    55ba:	0000                	unimp
    55bc:	0d58                	addi	a4,sp,660
    55be:	0000                	unimp
    55c0:	0c02                	c.slli64	s8
    55c2:	0000                	unimp
    55c4:	0d6e                	slli	s10,s10,0x1b
    55c6:	0000                	unimp
    55c8:	0c02                	c.slli64	s8
    55ca:	0000                	unimp
    55cc:	0c02                	c.slli64	s8
    55ce:	0000                	unimp
    55d0:	0da8                	addi	a0,sp,728
    55d2:	0000                	unimp
    55d4:	0c02                	c.slli64	s8
    55d6:	0000                	unimp
    55d8:	0c02                	c.slli64	s8
    55da:	0000                	unimp
    55dc:	0c02                	c.slli64	s8
    55de:	0000                	unimp
    55e0:	0c02                	c.slli64	s8
    55e2:	0000                	unimp
    55e4:	0c02                	c.slli64	s8
    55e6:	0000                	unimp
    55e8:	0c02                	c.slli64	s8
    55ea:	0000                	unimp
    55ec:	0c02                	c.slli64	s8
    55ee:	0000                	unimp
    55f0:	0c02                	c.slli64	s8
    55f2:	0000                	unimp
    55f4:	0c02                	c.slli64	s8
    55f6:	0000                	unimp
    55f8:	0c02                	c.slli64	s8
    55fa:	0000                	unimp
    55fc:	0c02                	c.slli64	s8
    55fe:	0000                	unimp
    5600:	0c02                	c.slli64	s8
    5602:	0000                	unimp
    5604:	0c96                	slli	s9,s9,0x5
    5606:	0000                	unimp
    5608:	0cb0                	addi	a2,sp,600
    560a:	0000                	unimp
    560c:	0e00                	addi	s0,sp,784
    560e:	0000                	unimp
    5610:	0ec8                	addi	a0,sp,852
    5612:	0000                	unimp
    5614:	0eae                	slli	t4,t4,0xb
    5616:	0000                	unimp
    5618:	107a                	c.slli	zero,0x3e
    561a:	0000                	unimp
    561c:	107a                	c.slli	zero,0x3e
    561e:	0000                	unimp
    5620:	0fa0                	addi	s0,sp,984
    5622:	0000                	unimp
    5624:	107a                	c.slli	zero,0x3e
    5626:	0000                	unimp
    5628:	0fcc                	addi	a1,sp,980
    562a:	0000                	unimp
    562c:	107a                	c.slli	zero,0x3e
    562e:	0000                	unimp
    5630:	107a                	c.slli	zero,0x3e
    5632:	0000                	unimp
    5634:	1024                	addi	s1,sp,40
    5636:	0000                	unimp
    5638:	0e5a                	slli	t3,t3,0x16
    563a:	0000                	unimp
    563c:	0fe6                	slli	t6,t6,0x19
    563e:	0000                	unimp
    5640:	107a                	c.slli	zero,0x3e
    5642:	0000                	unimp
    5644:	102e                	c.slli	zero,0x2b
    5646:	0000                	unimp
    5648:	106a                	c.slli	zero,0x3a
    564a:	0000                	unimp
    564c:	0ff8                	addi	a4,sp,988
    564e:	0000                	unimp
    5650:	1010                	addi	a2,sp,32
    5652:	0000                	unimp
    5654:	6470                	flw	fa2,76(s0)
    5656:	6e695f6f          	jal	t5,9ad3c <_data_lma+0x94ca8>
    565a:	6564                	flw	fs1,76(a0)
    565c:	2078                	lbu	a4,6(s0)
    565e:	7265                	lui	tp,0xffff9
    5660:	6f72                	flw	ft10,28(sp)
    5662:	2172                	lhu	a2,6(a0)
    5664:	000d                	c.nop	3
    5666:	0000                	unimp
    5668:	6552                	flw	fa0,20(sp)
    566a:	7571                	lui	a0,0xffffc
    566c:	7365                	lui	t1,0xffff9
    566e:	3a74                	lbu	a3,23(a2)
    5670:	0a0d                	addi	s4,s4,3
    5672:	72727543          	fmadd.d	fa0,ft4,ft7,fa4
    5676:	6e65                	lui	t3,0x19
    5678:	3a74                	lbu	a3,23(a2)
    567a:	6425                	lui	s0,0x9
    567c:	6d20                	flw	fs0,88(a0)
    567e:	0d41                	addi	s10,s10,16
    5680:	560a                	lw	a2,160(sp)
    5682:	61746c6f          	jal	s8,4c498 <_data_lma+0x46404>
    5686:	253a6567          	0x253a6567
    568a:	2064                	lbu	s1,6(s0)
    568c:	566d                	li	a2,-5
    568e:	0a0d                	addi	s4,s4,3
    5690:	0000                	unimp
    5692:	0000                	unimp
    5694:	64254343          	0x64254343
    5698:	5320                	lw	s0,96(a4)
    569a:	4352                	lw	t1,20(sp)
    569c:	4320                	lw	s0,64(a4)
    569e:	656e6e6f          	jal	t3,ebcf4 <_data_lma+0xe5c60>
    56a2:	25207463          	bgeu	zero,s2,58ea <_read+0x372>
    56a6:	0d64                	addi	s1,sp,668
    56a8:	000a                	c.slli	zero,0x2
    56aa:	0000                	unimp
    56ac:	64254343          	0x64254343
    56b0:	5320                	lw	s0,96(a4)
    56b2:	4352                	lw	t1,20(sp)
    56b4:	4320                	lw	s0,64(a4)
    56b6:	656e6e6f          	jal	t3,ebd0c <_data_lma+0xe5c78>
    56ba:	0a0d7463          	bgeu	s10,zero,5762 <_read+0x1ea>
    56be:	0000                	unimp
    56c0:	64254343          	0x64254343
    56c4:	5320                	lw	s0,96(a4)
    56c6:	4e49                	li	t3,18
    56c8:	6f43204b          	fnmsub.q	ft0,ft6,fs4,fa3,rdn
    56cc:	6e6e                	flw	ft8,216(sp)
    56ce:	6365                	lui	t1,0x19
    56d0:	0d74                	addi	a3,sp,668
    56d2:	000a                	c.slli	zero,0x2
    56d4:	6944                	flw	fs1,20(a0)
    56d6:	6e6f6373          	csrrsi	t1,0x6e6,30
    56da:	656e                	flw	fa0,216(sp)
    56dc:	000d7463          	bgeu	s10,zero,56e4 <_read+0x16c>
    56e0:	646e6553          	0x646e6553
    56e4:	5320                	lw	s0,96(a4)
    56e6:	6372756f          	jal	a0,2d51c <_data_lma+0x27488>
    56ea:	2065                	jal	5792 <_read+0x21a>
    56ec:	20706143          	fmadd.s	ft2,ft0,ft7,ft4,unknown
    56f0:	63637553          	0x63637553
    56f4:	7365                	lui	t1,0xffff9
    56f6:	6c756673          	csrrsi	a2,0x6c7,10
    56fa:	796c                	flw	fa1,116(a0)
    56fc:	000d                	c.nop	3
    56fe:	0000                	unimp
    5700:	6341                	lui	t1,0x10
    5702:	74706563          	bltu	zero,t2,5e4c <_read+0x8d4>
    5706:	000d                	c.nop	3
    5708:	5350                	lw	a2,36(a4)
    570a:	7220                	flw	fs0,96(a2)
    570c:	6165                	addi	sp,sp,112
    570e:	7964                	flw	fs1,116(a0)
    5710:	000d                	c.nop	3
    5712:	0000                	unimp
    5714:	37384353          	0x37384353
    5718:	3632                	lhu	a2,42(a2)
    571a:	5420                	lw	s0,104(s0)
    571c:	6d69                	lui	s10,0x1a
    571e:	2065                	jal	57c6 <_read+0x24e>
    5720:	2074754f          	fnmadd.s	fa0,fs0,ft7,ft4
    5724:	5020                	lw	s0,96(s0)
    5726:	0d44                	addi	s1,sp,660
    5728:	0000                	unimp
    572a:	0000                	unimp
    572c:	4450                	lw	a2,12(s0)
    572e:	64253a4f          	0x64253a4f
    5732:	0a0d                	addi	s4,s4,3
    5734:	72727543          	fmadd.d	fa0,ft4,ft7,fa4
    5738:	6e65                	lui	t3,0x19
    573a:	3a74                	lbu	a3,23(a2)
    573c:	6425                	lui	s0,0x9
    573e:	6d20                	flw	fs0,88(a0)
    5740:	0d41                	addi	s10,s10,16
    5742:	560a                	lw	a2,160(sp)
    5744:	61746c6f          	jal	s8,4c55a <_data_lma+0x464c6>
    5748:	253a6567          	0x253a6567
    574c:	2064                	lbu	s1,6(s0)
    574e:	566d                	li	a2,-5
    5750:	0a0d                	addi	s4,s4,3
    5752:	0000                	unimp
    5754:	6148                	flw	fa0,4(a0)
    5756:	646e                	flw	fs0,216(sp)
    5758:	656c                	flw	fa1,76(a0)
    575a:	5220                	lw	s0,96(a2)
    575c:	7165                	addi	sp,sp,-400
    575e:	6575                	lui	a0,0x1d
    5760:	20207473          	csrrci	s0,hedeleg,0
    5764:	6425                	lui	s0,0x9
    5766:	0a0d                	addi	s4,s4,3
    5768:	0000                	unimp
    576a:	0000                	unimp
    576c:	2020                	lbu	s0,2(s0)
    576e:	6552                	flw	fa0,20(sp)
    5770:	7571                	lui	a0,0xffffc
    5772:	7365                	lui	t1,0xffff9
    5774:	3a74                	lbu	a3,23(a2)
    5776:	0a0d                	addi	s4,s4,3
    5778:	2020                	lbu	s0,2(s0)
    577a:	4450                	lw	a2,12(s0)
    577c:	64495f4f          	0x64495f4f
    5780:	3a78                	lbu	a4,23(a2)
    5782:	6425                	lui	s0,0x9
    5784:	0a0d                	addi	s4,s4,3
    5786:	0000                	unimp
    5788:	2020                	lbu	s0,2(s0)
    578a:	72727543          	fmadd.d	fa0,ft4,ft7,fa4
    578e:	6e65                	lui	t3,0x19
    5790:	3a74                	lbu	a3,23(a2)
    5792:	6425                	lui	s0,0x9
    5794:	6d20                	flw	fs0,88(a0)
    5796:	0d41                	addi	s10,s10,16
    5798:	000a                	c.slli	zero,0x2
    579a:	0000                	unimp
    579c:	63637553          	0x63637553
    57a0:	7365                	lui	t1,0xffff9
    57a2:	00000d73          	0xd73
    57a6:	0000                	unimp
    57a8:	6e55                	lui	t3,0x15
    57aa:	70707573          	csrrci	a0,0x707,0
    57ae:	6574726f          	jal	tp,4d604 <_data_lma+0x47570>
    57b2:	2064                	lbu	s1,6(s0)
    57b4:	6d6d6f43          	0x6d6d6f43
    57b8:	6e61                	lui	t3,0x18
    57ba:	0d64                	addi	s1,sp,668
    57bc:	0000                	unimp
    57be:	0000                	unimp
    57c0:	4649                	li	a2,18
    57c2:	525f 5f58 4552      	0x45525f58525f
    57c8:	0d544553          	0xd544553
    57cc:	0000                	unimp
    57ce:	0000                	unimp
    57d0:	4450                	lw	a2,12(s0)
    57d2:	5620                	lw	s0,104(a2)
    57d4:	6c61                	lui	s8,0x18
    57d6:	6576                	flw	fa0,92(sp)
    57d8:	4320                	lw	s0,64(a4)
    57da:	656e6e6f          	jal	t3,ebe30 <_data_lma+0xe5d9c>
    57de:	000d7463          	bgeu	s10,zero,57e6 <_read+0x26e>
    57e2:	0000                	unimp
    57e4:	4450                	lw	a2,12(s0)
    57e6:	5620                	lw	s0,104(a2)
    57e8:	6c61                	lui	s8,0x18
    57ea:	6576                	flw	fa0,92(sp)
    57ec:	5420                	lw	s0,104(s0)
    57ee:	7365                	lui	t1,0xffff9
    57f0:	2074                	lbu	a3,6(s0)
    57f2:	646e6553          	0x646e6553
    57f6:	000d                	c.nop	3
    57f8:	75727473          	csrrci	s0,0x757,4
    57fc:	62207463          	bgeu	zero,sp,5e24 <_read+0x8ac>
    5800:	7475                	lui	s0,0xffffd
    5802:	6f74                	flw	fa3,92(a4)
    5804:	206e                	lhu	a1,6(s0)
    5806:	7369                	lui	t1,0xffffa
    5808:	6e20                	flw	fs0,88(a2)
    580a:	6c75                	lui	s8,0x1d
    580c:	216c                	lbu	a1,6(a0)
    580e:	0000                	unimp
    5810:	7562                	flw	fa0,56(sp)
    5812:	7474                	flw	fa3,108(s0)
    5814:	63206e6f          	jal	t3,be46 <_data_lma+0x5db2>
    5818:	6572                	flw	fa0,28(sp)
    581a:	7461                	lui	s0,0xffff8
    581c:	2065                	jal	58c4 <_read+0x34c>
    581e:	63637573          	csrrci	a0,0x636,6
    5822:	7365                	lui	t1,0xffff9
    5824:	00002173          	csrr	sp,ustatus
    5828:	135a                	slli	t1,t1,0x36
    582a:	0000                	unimp
    582c:	1362                	slli	t1,t1,0x38
    582e:	0000                	unimp
    5830:	135e                	slli	t1,t1,0x37
    5832:	0000                	unimp
    5834:	135e                	slli	t1,t1,0x37
    5836:	0000                	unimp
    5838:	135e                	slli	t1,t1,0x37
    583a:	0000                	unimp
    583c:	135a                	slli	t1,t1,0x36
    583e:	0000                	unimp
    5840:	1366                	slli	t1,t1,0x39
    5842:	0000                	unimp
    5844:	1366                	slli	t1,t1,0x39
    5846:	0000                	unimp
    5848:	13ac                	addi	a1,sp,488
    584a:	0000                	unimp
    584c:	1392                	slli	t2,t2,0x24
    584e:	0000                	unimp
    5850:	1396                	slli	t2,t2,0x25
    5852:	0000                	unimp
    5854:	139e                	slli	t2,t2,0x27
    5856:	0000                	unimp
    5858:	139e                	slli	t2,t2,0x27
    585a:	0000                	unimp
    585c:	139a                	slli	t2,t2,0x26
    585e:	0000                	unimp
    5860:	139e                	slli	t2,t2,0x27
    5862:	0000                	unimp
    5864:	13a2                	slli	t2,t2,0x28
    5866:	0000                	unimp
    5868:	13aa                	slli	t2,t2,0x2a
    586a:	0000                	unimp
    586c:	5f79656b          	0x5f79656b
    5870:	625f6e6f          	jal	t3,fc694 <_data_lma+0xf6600>
    5874:	6e74                	flw	fa3,92(a2)
    5876:	0000                	unimp
    5878:	5f79656b          	0x5f79656b
    587c:	5f66666f          	jal	a2,6be72 <_data_lma+0x65dde>
    5880:	7462                	flw	fs0,56(sp)
    5882:	006e                	c.slli	zero,0x1b
    5884:	65746177          	0x65746177
    5888:	5f72                	lw	t5,60(sp)
    588a:	656c                	flw	fa1,76(a0)
    588c:	6b61                	lui	s6,0x18
    588e:	625f 6e74 0000      	0x6e74625f
    5894:	65746177          	0x65746177
    5898:	5f72                	lw	t5,60(sp)
    589a:	6f6c                	flw	fa1,92(a4)
    589c:	625f7473          	csrrci	s0,0x625,30
    58a0:	6e74                	flw	fa3,92(a2)
    58a2:	0000                	unimp
    58a4:	5f79656b          	0x5f79656b
    58a8:	5f66666f          	jal	a2,6be9e <_data_lma+0x65e0a>
    58ac:	63696c63          	bltu	s2,s6,5ee4 <__sf_fake_stderr>
    58b0:	61685f6b          	0x61685f6b
    58b4:	646e                	flw	fs0,216(sp)
    58b6:	656c                	flw	fa1,76(a0)
    58b8:	000d                	c.nop	3
    58ba:	0000                	unimp
    58bc:	5f79656b          	0x5f79656b
    58c0:	635f6e6f          	jal	t3,fc6f4 <_data_lma+0xf6660>
    58c4:	696c                	flw	fa1,84(a0)
    58c6:	685f6b63          	bltu	t5,t0,5f5c <__sf_fake_stdout+0x38>
    58ca:	6e61                	lui	t3,0x18
    58cc:	6c64                	flw	fs1,92(s0)
    58ce:	0d65                	addi	s10,s10,25
    58d0:	0000                	unimp
    58d2:	0000                	unimp
    58d4:	65746177          	0x65746177
    58d8:	5f72                	lw	t5,60(sp)
    58da:	656c                	flw	fa1,76(a0)
    58dc:	6b61                	lui	s6,0x18
    58de:	645f 776f 5f6e      	0x5f6e776f645f
    58e4:	6c6c6163          	bltu	s8,t1,5fa6 <_ctype_+0x16>
    58e8:	6162                	flw	ft2,24(sp)
    58ea:	000d6b63          	bltu	s10,zero,5900 <_read+0x388>
    58ee:	0000                	unimp
    58f0:	65746177          	0x65746177
    58f4:	5f72                	lw	t5,60(sp)
    58f6:	656c                	flw	fa1,76(a0)
    58f8:	6b61                	lui	s6,0x18
    58fa:	755f 5f70 6163      	0x61635f70755f
    5900:	6c6c                	flw	fa1,92(s0)
    5902:	6162                	flw	ft2,24(sp)
    5904:	000d6b63          	bltu	s10,zero,591a <_read+0x3a2>
    5908:	65746177          	0x65746177
    590c:	5f72                	lw	t5,60(sp)
    590e:	6f6c                	flw	fa1,92(a4)
    5910:	755f7473          	csrrci	s0,0x755,30
    5914:	5f70                	lw	a2,124(a4)
    5916:	6c6c6163          	bltu	s8,t1,5fd8 <_ctype_+0x48>
    591a:	6162                	flw	ft2,24(sp)
    591c:	000d6b63          	bltu	s10,zero,5932 <_read+0x3ba>
    5920:	65746177          	0x65746177
    5924:	5f72                	lw	t5,60(sp)
    5926:	6f6c                	flw	fa1,92(a4)
    5928:	645f7473          	csrrci	s0,0x645,30
    592c:	5f6e776f          	jal	a4,ecf22 <_data_lma+0xe6e8e>
    5930:	6c6c6163          	bltu	s8,t1,5ff2 <_ctype_+0x62>
    5934:	6162                	flw	ft2,24(sp)
    5936:	000d6b63          	bltu	s10,zero,594c <_read+0x3d4>
    593a:	0000                	unimp
    593c:	3032                	lhu	a2,34(s0)
    593e:	2c30                	lbu	a2,26(s0)
    5940:	2c31                	jal	5b5c <_read+0x5e4>
    5942:	0000                	unimp
    5944:	3032                	lhu	a2,34(s0)
    5946:	2c30                	lbu	a2,26(s0)
    5948:	3032                	lhu	a2,34(s0)
    594a:	2c30                	lbu	a2,26(s0)
    594c:	3032                	lhu	a2,34(s0)
    594e:	2c30                	lbu	a2,26(s0)
    5950:	3032                	lhu	a2,34(s0)
    5952:	2c30                	lbu	a2,26(s0)
    5954:	3032                	lhu	a2,34(s0)
    5956:	2c30                	lbu	a2,26(s0)
    5958:	3032                	lhu	a2,34(s0)
    595a:	2c30                	lbu	a2,26(s0)
    595c:	3032                	lhu	a2,34(s0)
    595e:	2c30                	lbu	a2,26(s0)
    5960:	3032                	lhu	a2,34(s0)
    5962:	2c30                	lbu	a2,26(s0)
    5964:	3032                	lhu	a2,34(s0)
    5966:	2c30                	lbu	a2,26(s0)
    5968:	3032                	lhu	a2,34(s0)
    596a:	2c30                	lbu	a2,26(s0)
    596c:	3032                	lhu	a2,34(s0)
    596e:	2c30                	lbu	a2,26(s0)
    5970:	3031                	jal	517c <_printf_i+0x12c>
    5972:	3030                	lbu	a2,3(s0)
    5974:	2c30                	lbu	a2,26(s0)
    5976:	0000                	unimp
    5978:	3035                	jal	51a4 <_printf_i+0x154>
    597a:	352c                	lbu	a1,11(a0)
    597c:	2c30                	lbu	a2,26(s0)
    597e:	3035                	jal	51aa <_printf_i+0x15a>
    5980:	352c                	lbu	a1,11(a0)
    5982:	2c30                	lbu	a2,26(s0)
    5984:	3035                	jal	51b0 <_printf_i+0x160>
    5986:	352c                	lbu	a1,11(a0)
    5988:	2c30                	lbu	a2,26(s0)
    598a:	3035                	jal	51b6 <_printf_i+0x166>
    598c:	352c                	lbu	a1,11(a0)
    598e:	2c30                	lbu	a2,26(s0)
    5990:	3035                	jal	51bc <_printf_i+0x16c>
    5992:	352c                	lbu	a1,11(a0)
    5994:	2c30                	lbu	a2,26(s0)
    5996:	3035                	jal	51c2 <_printf_i+0x172>
    5998:	352c                	lbu	a1,11(a0)
    599a:	2c30                	lbu	a2,26(s0)
    599c:	3035                	jal	51c8 <_printf_i+0x178>
    599e:	352c                	lbu	a1,11(a0)
    59a0:	2c30                	lbu	a2,26(s0)
    59a2:	3035                	jal	51ce <_printf_i+0x17e>
    59a4:	352c                	lbu	a1,11(a0)
    59a6:	2c30                	lbu	a2,26(s0)
    59a8:	3035                	jal	51d4 <_printf_i+0x184>
    59aa:	352c                	lbu	a1,11(a0)
    59ac:	2c30                	lbu	a2,26(s0)
    59ae:	3035                	jal	51da <_printf_i+0x18a>
    59b0:	352c                	lbu	a1,11(a0)
    59b2:	2030                	lbu	a2,2(s0)
    59b4:	2020                	lbu	s0,2(s0)
    59b6:	2020                	lbu	s0,2(s0)
    59b8:	2020                	lbu	s0,2(s0)
    59ba:	2020                	lbu	s0,2(s0)
    59bc:	2020                	lbu	s0,2(s0)
    59be:	2020                	lbu	s0,2(s0)
    59c0:	2020                	lbu	s0,2(s0)
    59c2:	2020                	lbu	s0,2(s0)
    59c4:	2020                	lbu	s0,2(s0)
    59c6:	2020                	lbu	s0,2(s0)
    59c8:	2020                	lbu	s0,2(s0)
    59ca:	2020                	lbu	s0,2(s0)
    59cc:	2020                	lbu	s0,2(s0)
    59ce:	2c20                	lbu	s0,26(s0)
    59d0:	3035                	jal	51fc <_printf_i+0x1ac>
    59d2:	352c                	lbu	a1,11(a0)
    59d4:	2c30                	lbu	a2,26(s0)
    59d6:	3035                	jal	5202 <_printf_i+0x1b2>
    59d8:	352c                	lbu	a1,11(a0)
    59da:	2c30                	lbu	a2,26(s0)
    59dc:	3035                	jal	5208 <_printf_i+0x1b8>
    59de:	352c                	lbu	a1,11(a0)
    59e0:	2c30                	lbu	a2,26(s0)
    59e2:	3035                	jal	520e <_printf_i+0x1be>
    59e4:	352c                	lbu	a1,11(a0)
    59e6:	2c30                	lbu	a2,26(s0)
    59e8:	3035                	jal	5214 <_printf_i+0x1c4>
    59ea:	352c                	lbu	a1,11(a0)
    59ec:	2c30                	lbu	a2,26(s0)
    59ee:	3035                	jal	521a <_printf_i+0x1ca>
    59f0:	352c                	lbu	a1,11(a0)
    59f2:	2c30                	lbu	a2,26(s0)
    59f4:	3035                	jal	5220 <_printf_i+0x1d0>
    59f6:	352c                	lbu	a1,11(a0)
    59f8:	2c30                	lbu	a2,26(s0)
    59fa:	3035                	jal	5226 <_printf_i+0x1d6>
    59fc:	352c                	lbu	a1,11(a0)
    59fe:	2c30                	lbu	a2,26(s0)
    5a00:	3035                	jal	522c <_printf_i+0x1dc>
    5a02:	352c                	lbu	a1,11(a0)
    5a04:	2c30                	lbu	a2,26(s0)
    5a06:	3035                	jal	5232 <_printf_i+0x1e2>
    5a08:	322c                	lbu	a1,3(a2)
    5a0a:	3030                	lbu	a2,3(s0)
    5a0c:	2c30                	lbu	a2,26(s0)
    5a0e:	0000                	unimp
    5a10:	3032                	lhu	a2,34(s0)
    5a12:	2c30                	lbu	a2,26(s0)
    5a14:	3032                	lhu	a2,34(s0)
    5a16:	2c30                	lbu	a2,26(s0)
    5a18:	0000                	unimp
    5a1a:	0000                	unimp
    5a1c:	3032                	lhu	a2,34(s0)
    5a1e:	2c30                	lbu	a2,26(s0)
    5a20:	2c30                	lbu	a2,26(s0)
    5a22:	0000                	unimp
    5a24:	3032                	lhu	a2,34(s0)
    5a26:	2c30                	lbu	a2,26(s0)
    5a28:	3032                	lhu	a2,34(s0)
    5a2a:	2c30                	lbu	a2,26(s0)
    5a2c:	3032                	lhu	a2,34(s0)
    5a2e:	2c30                	lbu	a2,26(s0)
    5a30:	3032                	lhu	a2,34(s0)
    5a32:	2c30                	lbu	a2,26(s0)
    5a34:	3032                	lhu	a2,34(s0)
    5a36:	2c30                	lbu	a2,26(s0)
    5a38:	3035                	jal	5264 <_printf_i+0x214>
    5a3a:	3030                	lbu	a2,3(s0)
    5a3c:	002c                	addi	a1,sp,8
    5a3e:	0000                	unimp
    5a40:	74737953          	0x74737953
    5a44:	6d65                	lui	s10,0x19
    5a46:	3a6b6c43          	fmadd.d	fs8,fs6,ft6,ft7,unknown
    5a4a:	6425                	lui	s0,0x9
    5a4c:	0a0d                	addi	s4,s4,3
    5a4e:	0000                	unimp
    5a50:	70696843          	fmadd.s	fa6,fs2,ft6,fa4,unknown
    5a54:	4449                	li	s0,18
    5a56:	253a                	lhu	a4,10(a0)
    5a58:	3830                	lbu	a2,19(s0)
    5a5a:	0d78                	addi	a4,sp,668
    5a5c:	000a                	c.slli	zero,0x2
    5a5e:	0000                	unimp
    5a60:	3256                	lhu	a3,36(a2)
    5a62:	302e                	lhu	a1,34(s0)
    5a64:	312e                	lhu	a1,34(a0)
    5a66:	000d                	c.nop	3
    5a68:	1e90                	addi	a2,sp,880
    5a6a:	0000                	unimp
    5a6c:	1ec6                	slli	t4,t4,0x31
    5a6e:	0000                	unimp
    5a70:	1f04                	addi	s1,sp,944
    5a72:	0000                	unimp
    5a74:	1f5e                	slli	t5,t5,0x37
    5a76:	0000                	unimp
    5a78:	1ef8                	addi	a4,sp,892
    5a7a:	0000                	unimp
    5a7c:	1ef8                	addi	a4,sp,892
    5a7e:	0000                	unimp
    5a80:	1ef8                	addi	a4,sp,892
    5a82:	0000                	unimp
    5a84:	1ef8                	addi	a4,sp,892
    5a86:	0000                	unimp
    5a88:	1ef8                	addi	a4,sp,892
    5a8a:	0000                	unimp
    5a8c:	1ef8                	addi	a4,sp,892
    5a8e:	0000                	unimp
    5a90:	1f38                	addi	a4,sp,952
    5a92:	0000                	unimp
    5a94:	1f4a                	slli	t5,t5,0x32
    5a96:	0000                	unimp
    5a98:	210e                	lhu	a1,0(a0)
    5a9a:	0000                	unimp
    5a9c:	2128                	lbu	a0,2(a0)
    5a9e:	0000                	unimp
    5aa0:	214e                	lhu	a1,4(a0)
    5aa2:	0000                	unimp
    5aa4:	219c                	lbu	a5,0(a1)
    5aa6:	0000                	unimp
    5aa8:	21c6                	lhu	s1,4(a1)
    5aaa:	0000                	unimp
    5aac:	21fc                	lbu	a5,6(a1)
    5aae:	0000                	unimp
    5ab0:	3249                	jal	5432 <_close_r+0x10>
    5ab2:	54495f43          	0x54495f43
    5ab6:	415f 0d46 0000      	0xd46415f
    5abc:	6e75                	lui	t3,0x1d
    5abe:	776f6e6b          	0x776f6e6b
    5ac2:	206e                	lhu	a1,6(s0)
    5ac4:	3269                	jal	544e <_close_r+0x2c>
    5ac6:	76652063          	0x76652063
    5aca:	6e65                	lui	t3,0x19
    5acc:	2074                	lbu	a3,6(s0)
    5ace:	000d                	c.nop	3
    5ad0:	20317273          	csrrci	tp,hideleg,2
    5ad4:	7825                	lui	a6,0xfffe9
    5ad6:	0a20                	addi	s0,sp,280
    5ad8:	20327273          	csrrci	tp,hideleg,4
    5adc:	7825                	lui	a6,0xfffe9
    5ade:	2020                	lbu	s0,2(s0)
    5ae0:	2520                	lbu	s0,10(a0)
    5ae2:	0d64                	addi	s1,sp,668
    5ae4:	000a                	c.slli	zero,0x2
    5ae6:	0000                	unimp
    5ae8:	3269                	jal	5472 <_fstat_r+0x20>
    5aea:	74732063          	0x74732063
    5aee:	7261                	lui	tp,0xffff8
    5af0:	2074                	lbu	a3,6(s0)
    5af2:	6974                	flw	fa3,84(a0)
    5af4:	656d                	lui	a0,0x1b
    5af6:	6f20                	flw	fs0,88(a4)
    5af8:	7475                	lui	s0,0xffffd
    5afa:	000d                	c.nop	3
    5afc:	3269                	jal	5486 <_isatty_r+0x2>
    5afe:	72652063          	0x72652063
    5b02:	6f72                	flw	ft10,28(sp)
    5b04:	2072                	lhu	a2,6(s0)
    5b06:	6425                	lui	s0,0x9
    5b08:	0a0d                	addi	s4,s4,3
    5b0a:	0000                	unimp
    5b0c:	74746553          	0x74746553
    5b10:	6e69                	lui	t3,0x1a
    5b12:	56207367          	0x56207367
    5b16:	7562                	flw	fa0,56(sp)
    5b18:	64252073          	csrs	0x642,a0
    5b1c:	6d20                	flw	fs0,88(a0)
    5b1e:	2056                	lhu	a3,4(s0)
    5b20:	63637573          	csrrci	a0,0x636,6
    5b24:	7365                	lui	t1,0xffff9
    5b26:	000a0d73          	0xa0d73
    5b2a:	0000                	unimp
    5b2c:	2074754f          	fnmadd.s	fa0,fs0,ft7,ft4
    5b30:	6256                	flw	ft4,84(sp)
    5b32:	7375                	lui	t1,0xffffd
    5b34:	2520                	lbu	s0,10(a0)
    5b36:	2064                	lbu	s1,6(s0)
    5b38:	566d                	li	a2,-5
    5b3a:	7320                	flw	fs0,96(a4)
    5b3c:	6375                	lui	t1,0x1d
    5b3e:	73736563          	bltu	t1,s7,6268 <_data_lma+0x1d4>
    5b42:	0a0d                	addi	s4,s4,3
    5b44:	0000                	unimp
    5b46:	0000                	unimp
    5b48:	6425                	lui	s0,0x9
    5b4a:	2020                	lbu	s0,2(s0)
    5b4c:	0000                	unimp
    5b4e:	0000                	unimp
    5b50:	4944                	lw	s1,20(a0)
    5b52:	43442053          	0x43442053
    5b56:	4344                	lw	s1,4(a4)
    5b58:	3120                	lbu	s0,3(a0)
    5b5a:	6f20                	flw	fs0,88(a4)
    5b5c:	000d206b          	0xd206b
    5b60:	6256                	flw	ft4,84(sp)
    5b62:	7375                	lui	t1,0xffffd
    5b64:	3d20                	lbu	s0,27(a0)
    5b66:	2520                	lbu	s0,10(a0)
    5b68:	2064                	lbu	s1,6(s0)
    5b6a:	6520                	flw	fs0,72(a0)
    5b6c:	7272                	flw	ft4,60(sp)
    5b6e:	2020726f          	jal	tp,cd70 <_data_lma+0x6cdc>
    5b72:	353c                	lbu	a5,11(a0)
    5b74:	0d56                	slli	s10,s10,0x15
    5b76:	000a                	c.slli	zero,0x2
    5b78:	6256                	flw	ft4,84(sp)
    5b7a:	7375                	lui	t1,0xffffd
    5b7c:	3d20                	lbu	s0,27(a0)
    5b7e:	2520                	lbu	s0,10(a0)
    5b80:	2064                	lbu	s1,6(s0)
    5b82:	6520                	flw	fs0,72(a0)
    5b84:	7272                	flw	ft4,60(sp)
    5b86:	2020726f          	jal	tp,cd88 <_data_lma+0x6cf4>
    5b8a:	313e                	lhu	a5,34(a0)
    5b8c:	5632                	lw	a2,44(sp)
    5b8e:	0a0d                	addi	s4,s4,3
    5b90:	0000                	unimp
    5b92:	0000                	unimp
    5b94:	37386373          	csrrsi	t1,0x373,16
    5b98:	3632                	lhu	a2,42(a2)
    5b9a:	532e                	lw	t1,232(sp)
    5b9c:	7465                	lui	s0,0xffff9
    5b9e:	4f5f 7475 435f      	0x435f74754f5f
    5ba4:	7275                	lui	tp,0xffffd
    5ba6:	6572                	flw	fa0,28(sp)
    5ba8:	746e                	flw	fs0,248(sp)
    5baa:	3d20                	lbu	s0,27(a0)
    5bac:	2520                	lbu	s0,10(a0)
    5bae:	0d64                	addi	s1,sp,668
    5bb0:	000a                	c.slli	zero,0x2
    5bb2:	0000                	unimp
    5bb4:	6256                	flw	ft4,84(sp)
    5bb6:	7375                	lui	t1,0xffffd
    5bb8:	6f20                	flw	fs0,88(a4)
    5bba:	6666                	flw	fa2,88(sp)
    5bbc:	000d                	c.nop	3
    5bbe:	0000                	unimp
    5bc0:	20746573          	csrrsi	a0,0x207,8
    5bc4:	5635                	li	a2,-19
    5bc6:	7320                	flw	fs0,96(a4)
    5bc8:	32373863          	0x32373863
    5bcc:	0d36                	slli	s10,s10,0xd
    5bce:	0000                	unimp
    5bd0:	204b4e53          	0x204b4e53
    5bd4:	4256                	lw	tp,84(sp)
    5bd6:	7375                	lui	t1,0xffffd
    5bd8:	6520                	flw	fs0,72(a0)
    5bda:	7272                	flw	ft4,60(sp)
    5bdc:	000d726f          	jal	tp,dcbdc <_data_lma+0xd6b48>
    5be0:	6470                	flw	fa2,76(s0)
    5be2:	6420                	flw	fs0,72(s0)
    5be4:	7461                	lui	s0,0xffff8
    5be6:	2061                	jal	5c6e <_read+0x6f6>
    5be8:	7265                	lui	tp,0xffff9
    5bea:	6f72                	flw	ft10,28(sp)
    5bec:	2072                	lhu	a2,6(s0)
    5bee:	6425                	lui	s0,0x9
    5bf0:	2020                	lbu	s0,2(s0)
    5bf2:	6425                	lui	s0,0x9
    5bf4:	0a0d                	addi	s4,s4,3
    5bf6:	0000                	unimp
    5bf8:	20746573          	csrrsi	a0,0x207,8
    5bfc:	7845                	lui	a6,0xffff1
    5bfe:	6574                	flw	fa3,76(a0)
    5c00:	6e72                	flw	ft8,28(sp)
    5c02:	6c61                	lui	s8,0x18
    5c04:	5620                	lw	s0,104(a2)
    5c06:	6c61                	lui	s8,0x18
    5c08:	6576                	flw	fa0,92(sp)
    5c0a:	4320                	lw	s0,64(a4)
    5c0c:	6568                	flw	fa0,76(a0)
    5c0e:	000d6b63          	bltu	s10,zero,5c24 <_read+0x6ac>
    5c12:	0000                	unimp
    5c14:	63656843          	fmadd.d	fa6,fa0,fs6,fa2,unknown
    5c18:	6156206b          	0x6156206b
    5c1c:	766c                	flw	fa1,108(a2)
    5c1e:	2065                	jal	5cc6 <_read+0x74e>
    5c20:	7245                	lui	tp,0xffff1
    5c22:	6f72                	flw	ft10,28(sp)
    5c24:	2072                	lhu	a2,6(s0)
    5c26:	6944                	flw	fs1,20(a0)
    5c28:	6e6f6373          	csrrsi	t1,0x6e6,30
    5c2c:	656e                	flw	fa0,216(sp)
    5c2e:	000d7463          	bgeu	s10,zero,5c36 <_read+0x6be>
    5c32:	0000                	unimp
    5c34:	20746573          	csrrsi	a0,0x207,8
    5c38:	7845                	lui	a6,0xffff1
    5c3a:	6574                	flw	fa3,76(a0)
    5c3c:	6e72                	flw	ft8,28(sp)
    5c3e:	6c61                	lui	s8,0x18
    5c40:	5620                	lw	s0,104(a2)
    5c42:	6c61                	lui	s8,0x18
    5c44:	6576                	flw	fa0,92(sp)
    5c46:	4320                	lw	s0,64(a4)
    5c48:	6f6c                	flw	fa1,92(a4)
    5c4a:	000d6573          	csrrsi	a0,ustatus,26
    5c4e:	0000                	unimp
    5c50:	736f6c43          	fmadd.d	fs8,ft10,fs6,fa4,unknown
    5c54:	2065                	jal	5cfc <_read+0x784>
    5c56:	6156                	flw	ft2,84(sp)
    5c58:	766c                	flw	fa1,108(a2)
    5c5a:	2065                	jal	5d02 <_read+0x78a>
    5c5c:	7245                	lui	tp,0xffff1
    5c5e:	6f72                	flw	ft10,28(sp)
    5c60:	2072                	lhu	a2,6(s0)
    5c62:	6944                	flw	fs1,20(a0)
    5c64:	6e6f6373          	csrrsi	t1,0x6e6,30
    5c68:	656e                	flw	fa0,216(sp)
    5c6a:	000d7463          	bgeu	s10,zero,5c72 <_read+0x6fa>
    5c6e:	0000                	unimp
    5c70:	20746573          	csrrsi	a0,0x207,8
    5c74:	7845                	lui	a6,0xffff1
    5c76:	6574                	flw	fa3,76(a0)
    5c78:	6e72                	flw	ft8,28(sp)
    5c7a:	6c61                	lui	s8,0x18
    5c7c:	5620                	lw	s0,104(a2)
    5c7e:	6c61                	lui	s8,0x18
    5c80:	6576                	flw	fa0,92(sp)
    5c82:	4f20                	lw	s0,88(a4)
    5c84:	6570                	flw	fa2,76(a0)
    5c86:	0d6e                	slli	s10,s10,0x1b
    5c88:	0000                	unimp
    5c8a:	0000                	unimp
    5c8c:	6e65704f          	fnmadd.q	ft0,fa0,ft6,fa3
    5c90:	5620                	lw	s0,104(a2)
    5c92:	6c61                	lui	s8,0x18
    5c94:	6576                	flw	fa0,92(sp)
    5c96:	4520                	lw	s0,72(a0)
    5c98:	7272                	flw	ft4,60(sp)
    5c9a:	4420726f          	jal	tp,d0dc <_data_lma+0x7048>
    5c9e:	7369                	lui	t1,0xffffa
    5ca0:	6e6e6f63          	bltu	t3,t1,639e <_data_lma+0x30a>
    5ca4:	6365                	lui	t1,0x19
    5ca6:	0d74                	addi	a3,sp,668
    5ca8:	0000                	unimp
    5caa:	0000                	unimp
    5cac:	20746567          	0x20746567
    5cb0:	7845                	lui	a6,0xffff1
    5cb2:	6574                	flw	fa3,76(a0)
    5cb4:	6e72                	flw	ft8,28(sp)
    5cb6:	6c61                	lui	s8,0x18
    5cb8:	5620                	lw	s0,104(a2)
    5cba:	6c61                	lui	s8,0x18
    5cbc:	6576                	flw	fa0,92(sp)
    5cbe:	4520                	lw	s0,72(a0)
    5cc0:	7272                	flw	ft4,60(sp)
    5cc2:	2520726f          	jal	tp,cf14 <_data_lma+0x6e80>
    5cc6:	3230                	lbu	a2,3(a2)
    5cc8:	0d78                	addi	a4,sp,668
    5cca:	000a                	c.slli	zero,0x2
    5ccc:	2bc2                	lhu	s0,20(a5)
    5cce:	0000                	unimp
    5cd0:	2bfa                	lhu	a4,22(a5)
    5cd2:	0000                	unimp
    5cd4:	2c2e                	lhu	a1,26(s0)
    5cd6:	0000                	unimp
    5cd8:	2c50                	lbu	a2,28(s0)
    5cda:	0000                	unimp
    5cdc:	2bf6                	lhu	a3,22(a5)
    5cde:	0000                	unimp
    5ce0:	2cbc                	lbu	a5,26(s1)
    5ce2:	0000                	unimp
    5ce4:	2cf4                	lbu	a3,30(s1)
    5ce6:	0000                	unimp
    5ce8:	2d36                	lhu	a3,26(a0)
    5cea:	0000                	unimp
    5cec:	2d5a                	lhu	a4,28(a0)
    5cee:	0000                	unimp
    5cf0:	2dbe                	lhu	a5,26(a1)
    5cf2:	0000                	unimp
    5cf4:	2e42                	lhu	s0,28(a2)
    5cf6:	0000                	unimp
    5cf8:	2ec8                	lbu	a0,28(a3)
    5cfa:	0000                	unimp
    5cfc:	2f12                	lhu	a2,24(a4)
    5cfe:	0000                	unimp
    5d00:	796d                	lui	s2,0xffffb
    5d02:	735f 6970 535f      	0x535f6970735f
    5d08:	4b4e                	lw	s6,208(sp)
    5d0a:	000d                	c.nop	3
    5d0c:	6572                	flw	fa0,28(sp)
    5d0e:	76696563          	bltu	s2,t1,6478 <_data_lma+0x3e4>
    5d12:	5f65                	li	t5,-7
    5d14:	6164                	flw	fs1,68(a0)
    5d16:	6174                	flw	fa3,68(a0)
    5d18:	6520                	flw	fs0,72(a0)
    5d1a:	7272                	flw	ft4,60(sp)
    5d1c:	000d726f          	jal	tp,dcd1c <_data_lma+0xd6c88>
    5d20:	3025                	jal	5548 <_fstat>
    5d22:	7832                	flw	fa6,44(sp)
    5d24:	2020                	lbu	s0,2(s0)
    5d26:	0000                	unimp
    5d28:	6e69                	lui	t3,0x1a
    5d2a:	6574                	flw	fa3,76(a0)
    5d2c:	6e72                	flw	ft8,28(sp)
    5d2e:	6c61                	lui	s8,0x18
    5d30:	7620                	flw	fs0,104(a2)
    5d32:	6c61                	lui	s8,0x18
    5d34:	6576                	flw	fa0,92(sp)
    5d36:	6320                	flw	fs0,64(a4)
    5d38:	6568                	flw	fa0,76(a0)
    5d3a:	73206b63          	bltu	zero,s2,6470 <_data_lma+0x3dc>
    5d3e:	6375                	lui	t1,0x1d
    5d40:	73736563          	bltu	t1,s7,646a <_data_lma+0x3d6>
    5d44:	000d                	c.nop	3
    5d46:	0000                	unimp
    5d48:	7865                	lui	a6,0xffff9
    5d4a:	6574                	flw	fa3,76(a0)
    5d4c:	6e72                	flw	ft8,28(sp)
    5d4e:	6c61                	lui	s8,0x18
    5d50:	7620                	flw	fs0,104(a2)
    5d52:	6c61                	lui	s8,0x18
    5d54:	6576                	flw	fa0,92(sp)
    5d56:	6320                	flw	fs0,64(a4)
    5d58:	6568                	flw	fa0,76(a0)
    5d5a:	73206b63          	bltu	zero,s2,6490 <_data_lma+0x3fc>
    5d5e:	6375                	lui	t1,0x1d
    5d60:	73736563          	bltu	t1,s7,648a <_data_lma+0x3f6>
    5d64:	000d                	c.nop	3
    5d66:	0000                	unimp
    5d68:	6176                	flw	ft2,92(sp)
    5d6a:	766c                	flw	fa1,108(a2)
    5d6c:	5f65                	li	t5,-7
    5d6e:	736f6c63          	bltu	t5,s6,64a6 <_data_lma+0x412>
    5d72:	5f65                	li	t5,-7
    5d74:	6974                	flw	fa3,84(a0)
    5d76:	656d                	lui	a0,0x1b
    5d78:	5f72                	lw	t5,60(sp)
    5d7a:	6c6c6163          	bltu	s8,t1,643c <_data_lma+0x3a8>
    5d7e:	6162                	flw	ft2,24(sp)
    5d80:	63206b63          	bltu	zero,s2,63b6 <_data_lma+0x322>
    5d84:	6568                	flw	fa0,76(a0)
    5d86:	73206b63          	bltu	zero,s2,64bc <_data_lma+0x428>
    5d8a:	6375                	lui	t1,0x1d
    5d8c:	73736563          	bltu	t1,s7,64b6 <_data_lma+0x422>
    5d90:	000d                	c.nop	3
    5d92:	0000                	unimp
    5d94:	6176                	flw	ft2,92(sp)
    5d96:	766c                	flw	fa1,108(a2)
    5d98:	5f65                	li	t5,-7
    5d9a:	736f6c63          	bltu	t5,s6,64d2 <_data_lma+0x43e>
    5d9e:	5f65                	li	t5,-7
    5da0:	6974                	flw	fa3,84(a0)
    5da2:	656d                	lui	a0,0x1b
    5da4:	5f72                	lw	t5,60(sp)
    5da6:	6c6c6163          	bltu	s8,t1,6468 <_data_lma+0x3d4>
    5daa:	6162                	flw	ft2,24(sp)
    5dac:	63206b63          	bltu	zero,s2,63e2 <_data_lma+0x34e>
    5db0:	6568                	flw	fa0,76(a0)
    5db2:	66206b63          	bltu	zero,sp,6428 <_data_lma+0x394>
    5db6:	6961                	lui	s2,0x18
    5db8:	656c                	flw	fa1,76(a0)
    5dba:	2c64                	lbu	s1,30(s0)
    5dbc:	6e69                	lui	t3,0x1a
    5dbe:	6574                	flw	fa3,76(a0)
    5dc0:	6e72                	flw	ft8,28(sp)
    5dc2:	6c61                	lui	s8,0x18
    5dc4:	765f 6c61 6576      	0x65766c61765f
    5dca:	725f 7365 6c75      	0x6c757365725f
    5dd0:	2074                	lbu	a3,6(s0)
    5dd2:	6425                	lui	s0,0x9
    5dd4:	652c                	flw	fa1,72(a0)
    5dd6:	7478                	flw	fa4,108(s0)
    5dd8:	7265                	lui	tp,0xffff9
    5dda:	616e                	flw	ft2,216(sp)
    5ddc:	5f6c                	lw	a1,124(a4)
    5dde:	6176                	flw	ft2,92(sp)
    5de0:	766c                	flw	fa1,108(a2)
    5de2:	5f65                	li	t5,-7
    5de4:	6572                	flw	fa0,28(sp)
    5de6:	746c7573          	csrrci	a0,0x746,24
    5dea:	2520                	lbu	s0,10(a0)
    5dec:	0d64                	addi	s1,sp,668
    5dee:	000a                	c.slli	zero,0x2
    5df0:	6176                	flw	ft2,92(sp)
    5df2:	766c                	flw	fa1,108(a2)
    5df4:	5f65                	li	t5,-7
    5df6:	6e65706f          	j	5d4dc <_data_lma+0x57448>
    5dfa:	745f 6d69 7265      	0x72656d69745f
    5e00:	635f 6c61 626c      	0x626c6c61635f
    5e06:	6361                	lui	t1,0x18
    5e08:	6863206b          	0x6863206b
    5e0c:	6365                	lui	t1,0x19
    5e0e:	7573206b          	0x7573206b
    5e12:	73656363          	bltu	a0,s6,6538 <_data_lma+0x4a4>
    5e16:	00000d73          	0xd73
    5e1a:	0000                	unimp
    5e1c:	6176                	flw	ft2,92(sp)
    5e1e:	766c                	flw	fa1,108(a2)
    5e20:	5f65                	li	t5,-7
    5e22:	6e65706f          	j	5d508 <_data_lma+0x57474>
    5e26:	745f 6d69 7265      	0x72656d69745f
    5e2c:	635f 6c61 626c      	0x626c6c61635f
    5e32:	6361                	lui	t1,0x18
    5e34:	6863206b          	0x6863206b
    5e38:	6365                	lui	t1,0x19
    5e3a:	6166206b          	0x6166206b
    5e3e:	6c69                	lui	s8,0x1a
    5e40:	6465                	lui	s0,0x19
    5e42:	692c                	flw	fa1,80(a0)
    5e44:	746e                	flw	fs0,248(sp)
    5e46:	7265                	lui	tp,0xffff9
    5e48:	616e                	flw	ft2,216(sp)
    5e4a:	5f6c                	lw	a1,124(a4)
    5e4c:	6176                	flw	ft2,92(sp)
    5e4e:	766c                	flw	fa1,108(a2)
    5e50:	5f65                	li	t5,-7
    5e52:	6572                	flw	fa0,28(sp)
    5e54:	746c7573          	csrrci	a0,0x746,24
    5e58:	2520                	lbu	s0,10(a0)
    5e5a:	2c64                	lbu	s1,30(s0)
    5e5c:	7865                	lui	a6,0xffff9
    5e5e:	6574                	flw	fa3,76(a0)
    5e60:	6e72                	flw	ft8,28(sp)
    5e62:	6c61                	lui	s8,0x18
    5e64:	765f 6c61 6576      	0x65766c61765f
    5e6a:	725f 7365 6c75      	0x6c757365725f
    5e70:	2074                	lbu	a3,6(s0)
    5e72:	6425                	lui	s0,0x9
    5e74:	0a0d                	addi	s4,s4,3
    5e76:	0000                	unimp
    5e78:	6e726157          	0x6e726157
    5e7c:	6e69                	lui	t3,0x1a
    5e7e:	6e455f67          	0x6e455f67
    5e82:	6261                	lui	tp,0x18
    5e84:	656c                	flw	fa1,76(a0)
    5e86:	5320                	lw	s0,96(a4)
    5e88:	6375                	lui	t1,0x1d
    5e8a:	73736563          	bltu	t1,s7,65b4 <_data_lma+0x520>
    5e8e:	772c                	flw	fa1,104(a4)
    5e90:	7261                	lui	tp,0xffff8
    5e92:	696e                	flw	fs2,216(sp)
    5e94:	676e                	flw	fa4,216(sp)
    5e96:	6920                	flw	fs0,80(a0)
    5e98:	2064                	lbu	s1,6(s0)
    5e9a:	7369                	lui	t1,0xffffa
    5e9c:	2520                	lbu	s0,10(a0)
    5e9e:	2064                	lbu	s1,6(s0)
    5ea0:	202c                	lbu	a1,2(s0)
    5ea2:	6f6e                	flw	ft10,216(sp)
    5ea4:	72702077          	0x72702077
    5ea8:	6f69                	lui	t5,0x1a
    5eaa:	6972                	flw	fs2,28(sp)
    5eac:	7974                	flw	fa3,116(a0)
    5eae:	6920                	flw	fs0,80(a0)
    5eb0:	64252073          	csrs	0x642,a0
    5eb4:	0a0d                	addi	s4,s4,3
    5eb6:	0000                	unimp
    5eb8:	6e726157          	0x6e726157
    5ebc:	6e69                	lui	t3,0x1a
    5ebe:	6e455f67          	0x6e455f67
    5ec2:	6261                	lui	tp,0x18
    5ec4:	656c                	flw	fa1,76(a0)
    5ec6:	4620                	lw	s0,72(a2)
    5ec8:	6961                	lui	s2,0x18
    5eca:	206c                	lbu	a1,6(s0)
    5ecc:	616c                	flw	fa1,68(a0)
    5ece:	69207473          	csrrci	s0,0x692,0
    5ed2:	64252073          	csrs	0x642,a0
    5ed6:	4e20                	lw	s0,88(a2)
    5ed8:	6920776f          	jal	a4,d56a <_data_lma+0x74d6>
    5edc:	64252073          	csrs	0x642,a0
    5ee0:	0a0d                	addi	s4,s4,3
	...

00005ee4 <__sf_fake_stderr>:
	...

00005f04 <__sf_fake_stdin>:
	...

00005f24 <__sf_fake_stdout>:
	...
    5f44:	0043 0000 4f50 4953 0058 0000 002e 0000     C...POSIX.......
    5f54:	2d23 2b30 0020 0000 6c68 004c 6665 4567     #-0+ ...hlL.efgE
    5f64:	4746 0000 3130 3332 3534 3736 3938 4241     FG..0123456789AB
    5f74:	4443 4645 0000 0000 3130 3332 3534 3736     CDEF....01234567
    5f84:	3938 6261 6463 6665 0000 0000               89abcdef....

00005f90 <_ctype_>:
    5f90:	2000 2020 2020 2020 2020 2828 2828 2028     .         ((((( 
    5fa0:	2020 2020 2020 2020 2020 2020 2020 2020                     
    5fb0:	8820 1010 1010 1010 1010 1010 1010 1010      ...............
    5fc0:	0410 0404 0404 0404 0404 1004 1010 1010     ................
    5fd0:	1010 4141 4141 4141 0101 0101 0101 0101     ..AAAAAA........
    5fe0:	0101 0101 0101 0101 0101 0101 1010 1010     ................
    5ff0:	1010 4242 4242 4242 0202 0202 0202 0202     ..BBBBBB........
    6000:	0202 0202 0202 0202 0202 0202 1010 1010     ................
    6010:	0020 0000 0000 0000 0000 0000 0000 0000      ...............
	...
